((lp1
F63.607868729720309
aF63.705192441857548
aF63.802513531574292
aF63.899831603698978
aF63.997146261372109
aF64.094457106000249
aF64.191763737207793
aF64.289065752786399
aF64.386362748641773
aF64.483654318737848
aF64.580940055038567
aF64.678219547446787
aF64.775492383740811
aF64.872758149507732
aF64.970016428074473
aF65.067266800435419
aF65.164508845177778
aF65.261742138403278
aF65.358966253647452
aF65.456180761795309
aF65.553385230994479
aF65.650579226564389
aF65.747762310902772
aF65.844934043388619
aF65.942093980281697
aF66.039241674618637
aF66.136376676105556
aF66.233498531006816
aF66.330606782030443
aF66.427700968209592
aF66.524780624780135
aF66.621845283054441
aF66.71889447029119
aF66.815927709560896
aF66.91294451960762
aF67.00994441470614
aF67.106926904514779
aF67.203891493924175
aF67.30083768290099
aF67.397764966327486
aF67.49467283383612
aF67.591560769639202
aF67.688428252354129
aF67.785274754822936
aF67.882099743927256
aF67.97890268039761
aF68.075683018617681
aF68.172440206422721
aF68.269173684892593
aF68.365882888139055
aF68.46256724308688
aF68.559226169249357
aF68.655859078497372
aF68.752465374822123
aF68.849044454091498
aF68.945595703799853
aF69.04211850281105
aF69.138612221094263
aF69.235076219452921
aF69.331509849246416
aF69.427912452104096
aF69.524283359631795
aF69.620621893110396
aF69.716927363186329
aF69.813199069553818
aF69.909436300628883
aF70.005638333214165
aF70.101804432155177
aF70.197933849987209
aF70.294025826573147
aF70.390079588730998
aF70.486094349852223
aF70.582069309509293
aF70.678003653053125
aF70.773896551199329
aF70.869747159604103
aF70.965554618427973
aF71.06131805188825
aF71.157036567799679
aF71.252709257102069
aF71.348335193375561
aF71.443913432343123
aF71.539443011359054
aF71.63492294888384
aF71.730352243944623
aF71.825729875581516
aF71.921054802277567
aF72.016325961374932
aF72.111542268473144
aF72.206702616812294
aF72.301805876638326
aF72.396850894551264
aF72.491836492835048
aF72.586761468769083
aF72.681624593920034
aF72.776424613414491
aF72.87116024519095
aF72.965830179230323
aF73.060433076765634
aF73.154967569468411
aF73.249432258612657
aF73.343825714214702
aF73.438146474148354
aF73.532393043235444
aF73.626563892308923
aF73.720657457250297
aF73.814672137998414
aF73.908606297529602
aF74.002458260808382
aF74.096226313707461
aF74.189908701895931
aF74.283503629695147
aF74.377009258900458
aF74.470423707568685
aF74.563745048769476
aF74.656971309299323
aF74.750100468357616
aF74.843130456183388
aF74.936059152650472
aF75.028884385821371
aF75.121603930457297
aF75.214215506483072
aF75.306716777406294
aF75.399105348687982
aF75.491378766064273
aF75.583534513816943
aF75.675570012991543
aF75.767482619560653
aF75.859269622532068
aF75.950928241998128
aF76.042455627126344
aF76.133848854087574
aF76.225104923921833
aF76.316220760337259
aF76.40719320744347
aF76.498019027413434
aF76.588694898075389
aF76.679217410429757
aF76.769583066090661
aF76.859788274649063
aF76.949829350955241
aF77.039702512318414
aF77.129403875621207
aF77.218929454346224
aF77.30827515551276
aF77.397436776521062
aF77.486410001901064
aF77.575190399964399
aF77.663773419355735
aF77.752154385502479
aF77.840328496958548
aF77.928290821641838
aF78.016036292961203
aF78.103559705831941
aF78.19085571257628
aF78.277918818707732
aF78.364743378596287
aF78.451323591013363
aF78.537653494553524
aF78.623726962932508
aF78.709537700158421
aF78.795079235576821
aF78.880344918786648
aF78.965327914427249
aF79.050021196836042
aF79.134417544575996
aF79.218509534834055
aF79.302289537690285
aF79.38574971025966
aF79.468881990708198
aF79.551678092144925
aF79.634129496394138
aF79.716227447650482
aF79.797962946022082
aF79.879326740967414
aF79.960309324631666
aF80.040900925091137
aF80.121091499514023
aF80.200870727247292
aF80.280228002842165
aF80.359152429030118
aF80.437632809665075
aF80.515657642647639
aF80.593215112849677
aF80.670293085060777
aF80.746879096977736
aF80.822960352263493
aF80.898523713702488
aF80.97355569648272
aF81.04804246163809
aF81.121969809687357
aF81.195323174508061
aF81.268087617489897
aF81.340247822012572
aF81.411788088298707
aF81.482692328695833
aF81.552944063444301
aF81.622526416994589
aF81.691422114938248
aF81.759613481624172
aF81.827082438533211
aF81.893810503490982
aF81.959778790801636
aF82.02496801238749
aF82.089358480028565
aF82.152930108793342
aF82.215662421760058
aF82.277534556129027
aF82.338525270828285
aF82.398612955718875
aF82.457775642504259
aF82.515991017451896
aF82.573236436031863
aF82.629488939577129
aF82.68472527406702
aF82.738921911130902
aF82.792055071364928
aF82.844100750044262
aF82.895034745308749
aF82.944832688885541
aF82.993470079401774
aF83.040922318324647
aF83.087164748550464
aF83.132172695644499
aF83.175921511713668
aF83.218386621870877
aF83.259543573224491
aF83.299368086300959
aF83.337836108779626
aF83.374923871389427
aF83.410607945786737
aF83.444865304202168
aF83.477673380613382
aF83.509010133167138
aF83.53885410754711
aF83.567184500950788
aF83.593981226313645
aF83.619224976392815
aF83.642897287300599
aF83.664980601060208
aF83.685458326741923
aF83.704314899728843
aF83.721535838657616
aF83.737107799581253
aF83.751018626909158
aF83.763257400693448
aF83.773814479851652
aF83.782681540940544
aF83.789851612131059
aF83.7953191020693
aF83.799079823354347
aF83.80113101041006
aF83.801471331579108
aF83.800100895323055
aF83.797021250468035
aF83.792235380492983
aF83.785747691914437
aF83.777563996880374
aF83.767691490137651
aF83.756138720591352
aF83.742915557721517
aF83.728033153166976
aF83.711503897824073
aF83.693341374842447
aF83.673560308924593
aF83.652176512360541
aF83.629206828240044
aF83.604669071296257
aF83.578581966835515
aF83.550965088204322
aF83.521838793239226
aF83.491224160126407
aF83.459142923085565
aF83.42561740826649
aF83.390670470226141
aF83.354325429321918
aF83.316606010332279
aF83.27753628258229
aF83.237140601820911
aF83.195443554065847
aF83.152469901600199
aF83.108244531273073
aF83.062792405230311
aF83.016138514166812
aF82.968307833172744
aF82.919325280214125
aF82.869215677270674
aF82.818003714127499
aF82.765713914803882
aF82.712370606580279
aF82.65799789157353
aF82.602619620795579
aF82.546259370620902
aF82.48894042157778
aF82.430685739372834
aF82.371517958051029
aF82.311459365189663
aF82.250531889022071
aF82.188757087384374
aF82.126156138379343
a(lp2
F33.893891923738195
aF33.845147389695484
aF33.795965670277738
aF33.746342036605725
aF33.696271697420009
aF33.645749797996601
aF33.594771419038402
aF33.543331575541195
aF33.491425215634649
aF33.439047219396144
aF33.386192397638162
aF33.332855490668031
aF33.279031167019063
aF33.224714022153144
aF33.169898577133118
aF33.11457927726515
aF33.058750490709592
aF33.002406507060101
aF32.945541535889902
aF32.888149705264297
aF32.830225060219242
aF32.771761561204222
aF32.712753082489094
aF32.653193410534179
aF32.59307624232185
aF32.532395183649712
aF32.471143747383621
aF32.40931535166996
aF32.346903318105717
aF32.283900869866024
aF32.220301129787181
aF32.156097118404837
aF32.091281751945445
aF32.025847840271048
aF31.959788084774075
aF31.893095076223613
aF31.825761292559132
aF31.757779096632728
aF31.68914073389691
aF31.619838330037357
aF31.549863888548813
aF31.479209288253006
aF31.407866280757048
aF31.335826487850429
aF31.263081398839315
aF31.18962236781644
aF31.115440610865338
aF31.040527203196312
aF30.964873076213163
aF30.888469014508303
aF30.811305652785432
aF30.733373472706081
aF30.654662799659981
aF30.575163799455932
aF30.494866474931225
aF30.413760662478886
aF30.331836028488279
aF30.249082065698495
aF30.165488089461903
aF30.081043233914944
aF29.995736448054448
aF29.909556491716543
aF29.8224919314553
aF29.734531136319656
aF29.645662273524124
aF29.555873304012511
aF29.465151977909628
aF29.373485829860346
aF29.280862174251116
aF29.187268100311453
aF29.092690467093149
aF28.99711589832209
aF28.90053077712135
aF28.802921240600341
aF28.704273174308014
aF28.604572206545203
aF28.503803702533471
aF28.401952758435986
aF28.299004195226878
aF28.194942552404683
aF28.089752081546287
aF27.983416739696924
aF27.875920182592097
aF27.767245757706267
aF27.657376497125391
aF27.546295110236692
aF27.43398397623292
aF27.320425136424653
aF27.205600286356965
aF27.089490767724243
aF26.972077560079036
aF26.85334127232937
aF26.733262134018794
aF26.611819986383679
aF26.488994273183412
aF26.364764031295426
aF26.239107881072115
aF26.11200401645149
aF25.98343019481608
aF25.853363726595621
aF25.721781464604486
aF25.588659793109976
aF25.453974616624524
aF25.317701348414126
aF25.179814898718629
aF25.040289662675054
aF24.899099507939599
aF24.756217761999483
aF24.611617199169284
aF24.465270027265241
aF24.317147873949448
aF24.167221772738237
aF24.01546214866832
aF23.861838803613011
aF23.706320901242414
aF23.548876951621526
aF23.389474795439344
aF23.228081587862459
aF23.064663782007745
aF22.899187112027949
aF22.731616575804328
aF22.561916417241292
aF22.390050108157528
aF22.215980329770076
aF22.039668953765148
aF21.861077022954362
aF21.680164731510757
aF21.496891404783849
aF21.311215478690922
aF21.123094478683303
aF20.932484998287677
aF20.739342677223348
aF20.543622179095816
aF20.34527716867165
aF20.144260288736302
aF19.940523136542669
aF19.734016239855944
aF19.524689032604059
aF19.312489830144528
aF19.097365804160301
aF18.879262957198808
aF18.658126096873261
aF18.433898809743837
aF18.206523434904192
aF17.975941037297144
aF17.742091380790495
aF17.50491290104533
aF17.264342678214724
aF17.020316409513843
aF16.772768381707852
aF16.521631443569675
aF16.266836978364136
aF16.008314876421405
aF15.745993507869379
aF15.479799695601665
aF15.209658688564705
aF14.935494135456221
aF14.657228058935202
aF14.374780830454277
aF14.088071145833664
aF13.797016001707737
aF13.50153067298548
aF13.201528691480691
aF12.89692182587835
aF12.587620063218047
aF12.273531592091889
aF11.954562787768097
aF11.630618199469405
aF11.301600540052664
aF10.967410678355105
aF10.627947634492767
aF10.283108578417563
aF9.9327888320611066
aF9.5768818754165519
aF9.2152793569362217
aF8.8478711086446236
aF8.4745451663956999
aF8.0951877957298635
aF7.709683523814804
aF7.3179151779839469
aF6.9197639314159769
aF6.5151093565295453
aF6.1038294867012484
aF5.6858008869431407
aF5.2608987342098068
aF4.8289969080372339
aF4.3899680922460949
aF3.9436838884729526
aF3.49001494232132
aF3.0288310829531464
aF2.560001476966133
aF2.0833947974244027
aF1.5988794089283671
aF1.1063235696256088
aF0.60559565107249336
aF0.096564376860413401
aF-0.42090091908447064
aF-0.94693001363018459
aF-1.4816514941205283
aF-2.0251924357657498
aF-2.5776780559436934
aF-3.1392313446692905
aF-3.7099726705637162
aF-4.2900193617438163
aF-4.8794852611601778
aF-5.4784802560383445
aF-6.0871097812257791
aF-6.7054742964181075
aF-7.3336687374336176
aF-7.9717819419225835
aF-8.6198960501453019
aF-9.2780858817241594
aF-9.9464182895764175
aF-10.62495149255879
aF-11.313734388709655
aF-12.0128058513511
aF-12.722194010720337
aF-13.441915524217961
aF-14.171974838800542
aF-14.912363449508737
aF-15.663059158574375
aF-16.424025340022567
aF-17.195210215141532
aF-17.976546144645308
aF-18.767948943773757
aF-19.569317226976384
aF-20.380531789170696
aF-21.201455030868665
aF-22.031930434693745
aF-22.871782100969437
aF-23.720814350119912
aF-24.578811399592638
aF-25.445537122866536
aF-26.320734897839749
aF-27.204127551498701
aF-28.095417407242863
aF-28.994286440574903
aF-29.900396548069775
aF-30.81338993359282
aF-31.732889614694237
aF-32.65850005091675
aF-33.589807894483542
aF-34.526382862471145
aF-35.467778728142392
aF-36.413534427653758
aF-37.363175276871544
aF-38.316214291567825
aF-39.27215360284989
aF-40.230485958338377
aF-41.190696298366902
aF-42.152263395376337
aF-43.11466154372804
aF-44.077362286402618
aF-45.039836164476554
aF-46.001554474927737
aF-46.961991022186751
aF-47.920623848949681
aF-48.876936932086082
aF-49.83042183001249
aF-50.780579268636608
aF-51.726920653899548
aF-52.668969500024247
aF-53.606262763803194
aF-54.538352076575421
aF-55.464804866969544
aF-56.385205368930073
aF-57.299155511030428
aF-58.206275684544714
aF-59.106205389181518
aF-59.998603756756097
aF-60.883149954366147
aF-61.759543469830007
aF-62.627504283223431
aF-63.486772929296158
aF-64.337110456376706
aF-65.178298288050726
aF-66.010137994450375
aF-66.832450980397837
aF-67.645078097939844
aF-68.447879190963903
aF-69.240732579642682
aF-70.023534492403428
aF-70.796198452965299
aF-71.558654629781699
aF-72.310849154924227
aF-73.052743419102981
aF-73.784313349130514
aF-74.505548673714927
aF-75.216452183019541
aF-75.917038986970937
aF-76.607335776828236
aF-77.287380094065526
aF-77.957219610160664
aF-78.616911420443884
aF-79.266521354728908
aF-79.906123307047153
aF-80.535798586423809
aF-81.15563529027547
aF-81.765727701679978
aF-82.366175711465175
a(lp3
F65.771805868956179
aF65.775603278302839
aF65.779427648304363
aF65.783278963783488
aF65.787157209456154
aF65.79106236993141
aF65.79499442971175
aF65.798953373192703
aF65.802939184663188
aF65.806951848305346
aF65.810991348194648
aF65.815057668299772
aF65.819150792482759
aF65.823270704498924
aF65.827417387997002
aF65.831590826518891
aF65.835791003499978
aF65.840017902268968
aF65.844271506047917
aF65.848551797952211
aF65.852858760990756
aF65.857192378065776
aF65.861552631972927
aF65.865939505401229
aF65.870352980933319
aF65.874793041045038
aF65.879259668105888
aF65.883752844378762
aF65.888272552020069
aF65.892818773079583
aF65.897391489500819
aF65.901990683120658
aF65.906616335669568
aF65.911268428771535
aF65.915946943944121
aF65.920651862598476
aF65.925383166039296
aF65.930140835464883
aF65.934924851967196
aF65.939735196531771
aF65.944571850037789
aF65.94943479325805
aF65.954324006859082
aF65.959239471401077
aF65.964181167337813
aF65.969149075016901
aF65.974143174679597
aF65.979163446460831
aF65.984209870389464
aF65.989282426387859
aF65.994381094272299
aF65.999505853752865
aF66.004656684433343
aF66.009833565811377
aF66.015036477278372
aF66.020265398119633
aF66.025520307514327
aF66.030801184535434
aF66.036108008149796
aF66.041440757218211
aF66.046799410495296
aF66.052183946629668
aF66.057594344163803
aF66.063030581534136
aF66.068492637071188
aF66.073980488999311
aF66.079494115436773
aF66.085033494396058
aF66.090598603783604
aF66.096189421399686
aF66.101805924938972
aF66.10744809198988
aF66.113115900035055
aF66.11880932645127
aF66.124528348509301
aF66.130272943374052
aF66.136043088104671
aF66.141838759654362
aF66.147659934870603
aF66.153506590494857
aF66.159378703163071
aF66.16527624940511
aF66.171199205645337
aF66.177147548202157
aF66.183121253288391
aF66.189120297011044
aF66.19514465537155
aF66.201194304265456
aF66.207269219482853
aF66.213369376708016
aF66.219494751519605
aF66.22564531939085
aF66.23182105568921
aF66.238021935676571
aF66.244247934509318
aF66.250499027238234
aF66.256775188808675
aF66.26307639406032
aF66.269402617727579
aF66.275753834439186
aF66.28213001871859
aF66.288531144983665
aF66.294957187547013
aF66.301408120615719
aF66.307883918291594
aF66.314384554570978
aF66.320910003345062
aF66.327460238399581
aF66.33403523341498
aF66.340634961966515
aF66.347259397524113
aF66.353908513452609
aF66.360582283011425
aF66.367280679354977
aF66.374003675532478
aF66.380751244487925
aF66.387523359060282
aF66.394319991983409
aF66.401141115886091
aF66.407986703292096
aF66.414856726620044
aF66.421751158183739
aF66.428669970191976
aF66.435613134748465
aF66.442580623852137
aF66.449572409396964
aF66.456588463172096
aF66.463628756861823
aF66.470693262045586
aF66.47778195019805
aF66.484894792689161
aF66.49203176078413
aF66.499192825643348
aF66.506377958322659
aF66.513587129773299
aF66.520820310841685
aF66.528077472269828
aF66.535358584695146
aF66.542663618650479
aF66.549992544564162
aF66.557345332760178
aF66.564721953457948
aF66.572122376772626
aF66.57954657271479
aF66.586994511190966
aF66.59446616200313
aF66.601961494849149
aF66.609480479322599
aF66.617023084912887
aF66.624589281005228
aF66.632179036880729
aF66.639792321716413
aF66.647429104585285
aF66.65508935445628
aF66.66277304019448
aF66.670480130560861
aF66.678210594212644
aF66.685964399703124
aF66.693741515481832
aF66.701541909894488
aF66.70936555118314
aF66.717212407486102
aF66.725082446838059
aF66.732975637170128
aF66.74089194630983
aF66.748831341981173
aF66.756793791804753
aF66.764779263297669
aF66.772787723873748
aF66.780819140843448
aF66.788873481413958
aF66.79695071268921
aF66.805050801670049
aF66.813173715254038
aF66.821319420235881
aF66.829487883307053
aF66.837679071056243
aF66.845892949969084
aF66.854129486428434
aF66.862388646714294
aF66.870670397003977
aF66.878974703371995
aF66.887301531790371
aF66.895650848128469
aF66.904022618153078
aF66.912416807528629
aF66.92083338181709
aF66.929272306478168
aF66.937733546869197
aF66.946217068245318
aF66.954722835759654
aF66.963250814462981
aF66.971800969304383
aF66.980373265130737
aF66.988967666687088
aF66.997584138616787
aF67.006222645461293
aF67.014883151660428
aF67.023565621552535
aF67.032270019374181
aF67.04099630926072
aF67.049744455245929
aF67.058514421262373
aF67.06730617114134
aF67.076119668613046
aF67.084954877306416
aF67.093811760749659
aF67.102690282369821
aF67.111590405493203
aF67.120512093345383
aF67.129455309051195
aF67.138420015634878
aF67.147406176020198
aF67.156413753030506
aF67.165442709388742
aF67.174493007717729
aF67.183564610540003
aF67.192657480278058
aF67.20177157925454
aF67.210906869691968
aF67.220063313713339
aF67.229240873341737
aF67.238439510500768
aF67.247659187014534
aF67.256899864607661
aF67.266161504905554
aF67.275444069434343
aF67.284747519621078
aF67.29407181679386
aF67.30341692218181
aF67.312782796915329
aF67.322169402026134
aF67.331576698447336
aF67.341004647013563
aF67.350453208461161
aF67.359922343428167
aF67.369412012454518
aF67.378922175982112
aF67.388452794355018
aF67.398003827819394
aF67.407575236523883
aF67.417166980519454
aF67.426779019759749
aF67.436411314101036
aF67.446063823302453
aF67.455736507026074
aF67.465429324837018
aF67.475142236203624
aF67.484875200497598
aF67.494628176993999
aF67.504401124871592
aF67.51419400321285
aF67.524006771004025
aF67.533839387135387
aF67.543691810401413
aF67.553563999500824
aF67.563455913036691
aF67.573367509516657
aF67.583298747353155
aF67.593249584863329
aF67.603219980269358
aF67.613209891698574
aF67.623219277183608
aF67.633248094662491
aF67.64329630197885
aF67.653363856882024
aF67.663450717027217
aF67.673556839975873
aF67.683682183195401
aF67.693826704059717
aF67.703990359849271
aF67.714173107751165
aF67.724374904859303
aF67.734595708174723
aF67.744835474605622
aF67.755094160967516
aF67.765371723983463
aF67.77566812028428
aF67.785983306408625
aF67.796317238803141
aF67.806669873822727
aF67.817041167730849
aF67.827431076699384
aF67.837839556808973
aF67.848266564049339
aF67.858712054319241
aF67.869175983426743
aF67.879658307089599
aF67.89015898093507
aF67.900677960500403
aF67.91121520123292
aF67.921770658490232
aF67.932344287540417
aF67.942936043562298
aF67.95354588164551
aF67.964173756790785
aF67.974819623910193
aF67.985483437827213
aF67.996165153277104
aF68.00686472490699
aF68.017582107276112
aF68.02831725485612
aF68.03907012203112
aF68.049840663098024
aF68.06062883226673
aF68.071434583660292
aF68.082257871315264
aF68.093098649181798
aF68.103956871123941
aF68.114832490919781
aF68.125725462261812
aF68.136635738757064
aF68.147563273927318
aF68.158508021209371
aF68.169469933955355
aF68.180448965432845
aF68.191445068825161
aF68.202458197231536
aF68.21348830366756
aF68.22453534106522
aF68.235599262273155
aF68.24668002005707
aF68.257777567099794
aF68.268891856001687
aF68.280022839280718
aF68.291170469373014
aF68.30233469863272
aF68.313515479332608
aF68.324712763664252
aF68.335926503737994
aF68.347156651583759
aF68.358403159150797
aF68.369665978308319
aF68.380945060845505
aF68.39224035847198
aF68.403551822817917
aF68.414879405434618
aF68.426223057794232
aF68.437582731290632
aF68.448958377239379
aF68.46034994687804
aF68.471757391366566
aF68.483180661787458
aF68.494619709146136
aF68.506074484371112
aF68.517544938314657
aF68.52903102175253
aF68.540532685384704
aF68.552049879835536
aF68.563582555653994
aF68.57513066331407
aF68.586694153215049
aF68.598272975681766
aF68.609867080965017
aF68.621476419241759
aF68.633100940615478
aF68.644740595116531
aF68.656395332702402
aF68.668065103258073
aF68.679749856596231
aF68.69144954245786
aF68.703164110512176
aF68.7148935103573
aF68.726637691520381
aF68.738396603458014
aF68.750170195556535
aF68.761958417132377
aF68.773761217432423
aF68.785578545634223
aF68.797410350846576
aF68.809256582109555
aF68.821117188395135
aF68.832992118607336
aF68.844881321582747
aF68.856784746090696
aF68.868702340833693
aF68.880634054447839
aF68.892579835503057
aF68.904539632503528
aF68.916513393887968
aF68.928501068030144
aF68.940502603239096
aF68.952517947759503
aF68.964547049772165
aF68.976589857394245
aF68.988646318679685
aF69.000716381619611
aF69.012799994142611
aF69.02489710411524
aF69.037007659342294
aF69.04913160756729
aF69.061268896472598
aF69.073419473680275
aF69.085583286751955
aF69.097760283189558
aF69.10995041043553
aF69.122153615873344
aF69.134369846827795
aF69.146599050565413
aF69.158841174294906
aF69.171096165167441
aF69.183363970277227
aF69.19564453666176
aF69.207937811302273
aF69.220243741124136
aF69.232562272997285
aF69.244893353736614
aF69.257236930102408
aF69.269592948800607
aF69.281961356483521
aF69.294342099749926
aF69.306735125145664
aF69.319140379164025
aF69.331557808246146
aF69.343987358781362
aF69.356428977107925
aF69.368882609512923
aF69.381348202233198
aF69.393825701455555
aF69.406315053317059
aF69.418816203905834
aF69.431329099261106
aF69.44385368537381
aF69.456389908187163
aF69.468937713596844
aF69.481497047451597
aF69.494067855553581
aF69.506650083658897
aF69.519243677478045
aF69.531848582676247
aF69.54446474487392
aF69.5570921096473
aF69.569730622528681
aF69.582380229007015
aF69.595040874528181
aF69.60771250449568
aF69.620395064270923
aF69.633088499173752
aF69.645792754482912
aF69.658507775436391
aF69.671233507232103
aF69.683969895028085
aF69.69671688394331
aF69.709474419057742
aF69.722242445413158
aF69.735020908013368
aF69.747809751824903
aF69.760608921777248
aF69.77341836276355
aF69.786238019640962
aF69.799067837231107
aF69.811907760320651
aF69.824757733661698
aF69.83761770197232
aF69.850487609936991
aF69.863367402207189
aF69.876257023401593
aF69.889156418107063
aF69.902065530878559
aF69.9149843062401
aF69.927912688684927
aF69.940850622676209
aF69.953798052647443
aF69.966754923002981
aF69.979721178118467
aF69.992696762341268
aF70.005681619991392
aF70.018675695361296
aF70.031678932717028
aF70.044691276298295
aF70.057712670319248
aF70.070743058968787
aF70.083782386411215
aF70.09683059678656
aF70.109887634211418
aF70.122953442778993
aF70.136027966560036
aF70.149111149603016
aF70.162202935934872
aF70.17530326956151
aF70.188412094468134
aF70.201529354619893
aF70.21465499396237
aF70.227788956422216
aF70.240931185907357
aF70.25408162630788
aF70.267240221496266
aF70.280406915328115
aF70.293581651642469
aF70.306764374262571
aF70.319955026996169
aF70.333153553636066
aF70.346359897960838
aF70.359574003735162
aF70.372795814710372
aF70.386025274625055
aF70.39926232720552
aF70.41250691616635
aF70.425758985210905
aF70.439018478032011
aF70.452285338311981
aF70.465559509723988
aF70.4788409359317
aF70.492129560590584
aF70.505425327347837
aF70.518728179843208
aF70.532038061709628
aF70.545354916573459
aF70.55867868805521
aF70.572009319770103
aF70.585346755328487
aF70.598690938336389
aF70.612041812396185
aF70.625399321107025
aF70.63876340806533
aF70.652134016865404
aF70.665511091099972
aF70.678894574360754
aF70.692284410238869
aF70.705680542325467
aF70.719082914212393
aF70.732491469492302
aF70.74590615175984
aF70.759326904611555
aF70.772753671646868
aF70.786186396468395
aF70.799625022682619
aF70.813069493900301
aF70.826519753737074
aF70.839975745814129
aF70.853437413758485
aF70.866904701203708
aF70.880377551790517
aF70.893855909166945
aF70.907339716989597
aF70.920828918923334
aF70.934323458642481
aF70.947823279831084
aF70.961328326183477
aF70.97483854140475
aF70.988353869211537
aF71.001874253332289
aF71.01539963750804
aF71.028929965492651
aF71.042465181053785
aF71.05600522797296
aF71.069550050046487
aF71.083099591085812
aF71.096653794918041
aF71.110212605386636
aF71.123775966351843
aF71.137343821691147
aF71.150916115299964
aF71.164492791092243
aF71.178073793000692
aF71.191659064977671
aF71.205248550995407
aF71.218842195046918
aF71.232439941146168
aF71.246041733328752
aF71.259647515652603
aF71.273257232198205
aF71.286870827069322
aF71.300488244393605
aF71.31410942832288
aF71.32773432303398
aF71.341362872728993
aF71.354995021636014
aF71.368630714009527
aF71.382269894130999
aF71.395912506309514
aF71.409558494882035
aF71.423207804214172
aF71.436860378700686
aF71.450516162765936
aF71.464175100864367
aF71.477837137481103
aF71.491502217132592
aF71.505170284366883
aF71.518841283764345
aF71.532515159938185
aF71.546191857534566
aF71.559871321233985
aF71.573553495750843
aF71.587238325834562
aF71.600925756270016
aF71.614615731877791
aF71.628308197514897
aF71.642003098075477
aF71.65570037849082
aF71.669399983730258
aF71.683101858801678
aF71.696805948751802
aF71.710512198666862
aF71.724220553673049
aF71.737930958937113
aF71.751643359666616
aF71.765357701110844
aF71.779073928560919
aF71.792791987350455
aF71.806511822856166
aF71.820233380498181
aF71.833956605740582
aF71.847681444092117
aF71.861407841106242
aF71.875135742382099
aF71.888865093564718
aF71.902595840345555
aF71.91632792846309
aF71.930061303703155
aF71.943795911899485
aF71.957531698934332
aF71.971268610738633
aF71.985006593292894
aF71.998745592627301
aF72.012485554822405
aF72.0262264260096
aF72.039968152371458
aF72.053710680142359
aF72.067453955608826
aF72.081197925110175
aF72.094942535038655
aF72.108687731840334
aF72.12243346201528
aF72.136179672118061
aF72.149926308758182
aF72.163673318600758
aF72.17742064836672
aF72.191168244833364
aF72.20491605483474
aF72.218664025262271
aF72.232412103065002
aF72.246160235250215
aF72.2599083688836
aF72.273656451090204
aF72.287404429054277
aF72.301152250020124
aF72.314899861292346
aF72.328647210236369
aF72.342394244278879
aF72.356140910908039
aF72.36988715767437
aF72.383632932190636
aF72.397378182132655
aF72.411122855239554
aF72.424866899314225
aF72.438610262223762
aF72.452352891899878
aF72.466094736339144
aF72.4798357436038
aF72.493575861821668
aF72.507315039186921
aF72.521053223960322
aF72.534790364469671
aF72.548526409110224
aF72.562261306345022
aF72.575995004705305
aF72.589727452790967
aF72.603458599270851
aF72.617188392883222
aF72.630916782436088
aF72.644643716807536
aF72.658369144946263
aF72.672093015871809
aF72.685815278675008
aF72.69953588251829
aF72.713254776636148
aF72.726971910335322
aF72.740687232995469
aF72.75440069406919
aF72.768112243082598
aF72.781821829635547
aF72.795529403402128
aF72.809234914130869
aF72.822938311645117
aF72.836639545843582
aF72.850338566700259
aF72.864035324265245
aF72.877729768664636
aF72.891421850101224
aF72.905111518854611
aF72.918798725281547
aF72.932483419816336
aF72.946165552971223
aF72.959845075336418
aF72.973521937580784
aF72.987196090451789
aF73.000867484776194
aF73.014536071459972
aF73.028201801488919
aF73.041864625928838
aF73.055524495925766
aF73.069181362706445
aF73.082835177578389
aF73.096485891930328
aF73.110133457232507
aF73.123777825036967
aF73.137418946977618
aF73.151056774770751
aF73.164691260215321
aF73.178322355193046
aF73.191950011668709
aF73.205574181690707
aF73.219194817390814
aF73.232811870984904
aF73.246425294772905
aF73.260035041139247
aF73.27364106255294
aF73.287243311567934
aF73.300841740823401
aF73.314436303043848
aF73.328026951039405
aF73.341613637706033
aF73.355196316025953
aF73.368774939067549
aF73.382349459985917
aF73.395919832022713
aF73.409486008506704
aF73.423047942854026
aF73.436605588567858
aF73.450158899239398
aF73.463707828547413
aF73.477252330258878
aF73.49079235822883
aF73.504327866400985
aF73.517858808807432
aF73.531385139569238
aF73.544906812896414
aF73.558423783088216
aF73.5719360045332
aF73.585443431709479
aF73.598946019184993
aF73.612443721617325
aF73.62593649375448
aF73.639424290434363
aF73.65290706658547
aF73.666384777226682
aF73.679857377467727
aF73.693324822509041
aF73.706787067642168
aF73.720244068249869
aF73.733695779805927
aF73.747142157875743
aF73.760583158116333
aF73.774018736276275
aF73.787448848196007
aF73.800873449807895
aF73.814292497136506
aF73.827705946298352
aF73.841113753502555
aF73.854515875050438
aF73.867912267335953
aF73.881302886845646
aF73.894687690158875
aF73.908066633947783
aF73.921439674977393
aF73.934806770105951
aF73.948167876284657
aF73.961522950558049
aF73.974871950063871
aF73.988214832033321
aF74.001551553791046
aF74.014882072755171
aF74.028206346437514
aF74.041524332443501
aF74.054835988472433
aF74.068141272317206
aF74.081440141864846
aF74.09473255509613
aF74.108018470085796
aF74.121297845002758
aF74.134570638109935
aF74.147836807764335
aF74.1610963124172
aF74.17434911061396
aF74.187595160994263
aF74.20083442229209
aF74.214066853335638
aF74.227292413047593
aF74.240511060444803
aF74.253722754638602
aF74.266927454834757
aF74.280125120333409
aF74.293315710529143
aF74.306499184910862
aF74.319675503062157
aF74.332844624660822
aF74.346006509479182
aF74.359161117384105
aF74.372308408336721
aF74.385448342392806
aF74.398580879702351
aF74.411705980509879
aF74.424823605154359
aF74.43793371406899
aF74.451036267781404
aF74.464131226913594
aF74.477218552181881
aF74.49029820439668
aF74.503370144462892
aF74.516434333379564
aF74.529490732239751
aF74.542539302230821
aF74.555580004634265
aF74.568612800825449
aF74.581637652273884
aF74.594654520542974
aF74.60766336729003
aF74.620664154266279
aF74.633656843316601
aF74.646641396379721
aF74.659617775487988
aF74.672585942767299
aF74.685545860437244
aF74.698497490810752
aF74.711440796294141
aF74.724375739387199
aF74.737302282682776
aF74.750220388866978
aF74.763130020719004
aF74.776031141111133
aF74.788923713008415
aF74.801807699468867
aF74.814683063643145
aF74.827549768774702
aF74.84040777819942
aF74.85325705534575
aF74.866097563734485
aF74.878929266978716
aF74.891752128783622
aF74.904566112946526
aF74.917371183356735
aF74.930167303995333
aF74.942954438935317
aF74.955732552341118
aF74.968501608468912
aF74.981261571666096
aF74.994012406371482
aF75.006754077115048
aF75.019486548517847
aF75.032209785291911
aF75.04492375224001
aF75.05762841425566
aF75.070323736322933
aF75.083009683516437
aF75.095686221001017
aF75.108353314031717
aF75.121010927953606
aF75.133659028201848
aF75.146297580301237
aF75.158926549866251
aF75.171545902600982
aF75.184155604298851
aF75.196755620842495
aF75.209345918203709
aF75.221926462443264
aF75.234497219710732
aF75.247058156244307
aF75.25960923837097
aF75.272150432505711
aF75.284681705152082
aF75.297203022901627
aF75.3097143524339
aF75.322215660516036
aF75.334706914003149
aF75.34718807983765
aF75.359659125049333
aF75.37212001675519
aF75.384570722159353
aF75.397011208552712
aF75.409441443313042
aF75.421861393904521
aF75.434271027877941
aF75.446670312870239
aF75.459059216604558
aF75.471437706889915
aF75.483805751621233
aF75.496163318778969
aF75.508510376429157
aF75.520846892723185
aF75.533172835897503
aF75.545488174273657
aF75.557792876257992
aF75.57008691034163
aF75.582370245100236
aF75.59464284919369
aF75.60690469136631
aF75.619155740446331
aF75.631395965345874
aF75.643625335060975
aF75.65584381867113
aF75.668051385339197
aF75.68024800431148
aF75.69243364491723
aF75.704608276568706
aF75.716771868760972
aF75.728924391071757
aF75.741065813161242
aF75.753196104771945
aF75.765315235728536
aF75.777423175937685
aF75.789519895387912
aF75.801605364149538
aF75.813679552374367
aF75.825742430295577
aF75.837793968227615
aF75.849834136566059
aF75.861862905787362
aF75.873880246448877
aF75.885886129188492
aF75.897880524724741
aF75.90986340385632
aF75.92183473746222
aF75.933794496501591
aF75.945742652013408
aF75.95767917511634
aF75.96960403700885
aF75.981517208968882
aF75.993418662353577
aF76.005308368599472
aF76.017186299222089
aF76.029052425815934
aF76.040906720054323
aF76.052749153689234
aF76.064579698551199
aF76.076398326549281
aF76.088205009670588
aF76.099999719980758
aF76.111782429623048
aF76.123553110819003
aF76.135311735867759
aF76.147058277146229
aF76.158792707108873
aF76.170514998287587
aF76.182225123291573
aF76.193923054807328
aF76.205608765598427
aF76.217282228505439
aF76.228943416445844
aF76.240592302413972
aF76.252228859480752
aF76.263853060793792
aF76.275464879577157
aF76.287064289131322
aF76.298651262833175
aF76.310225774135574
aF76.321787796567804
aF76.333337303735007
aF76.344874269318353
aF76.35639866707487
aF76.367910470837501
aF76.379409654514745
aF76.390896192090864
aF76.402370057625717
aF76.413831225254668
aF76.425279669188427
aF76.436715363713247
aF76.44813828319063
aF76.459548402057365
aF76.470945694825502
aF76.482330136082112
aF76.493701700489567
aF76.50506036278523
aF76.516406097781413
aF76.527738880365519
aF76.539058685499938
aF76.550365488221857
aF76.561659263643406
aF76.572939986951553
aF76.584207633408113
aF76.595462178349734
aF76.60670359718786
aF76.617931865408636
aF76.629146958573003
aF76.640348852316734
aF76.651537522350253
aF76.662712944458761
aF76.673875094502222
aF76.685023948415406
aF76.696159482207747
aF76.707281671963472
aF76.718390493841611
aF76.729485924076016
aF76.740567938975403
aF76.751636514923135
aF76.76269162837778
aF76.7737332558726
aF76.784761374015758
aF76.795775959490612
aF76.806776989055422
aF76.817764439543538
aF76.828738287863374
aF76.839698510998687
aF76.85064508600837
aF76.861577990026646
aF76.872497200263112
aF76.883402694002754
aF76.894294448606146
aF76.905172441509421
aF76.916036650224328
aF76.926887052338472
aF76.937723625515218
aF76.948546347493931
aF76.959355196090002
aF76.970150149194836
aF76.980931184776281
aF76.99169828087841
aF77.002451415621692
aF77.01319056720331
aF77.023915713897139
aF77.034626834053739
aF77.04532390610072
aF77.056006908542798
aF77.066675819961802
aF77.077330619017104
aF77.087971284445345
aF77.098597795061067
aF77.109210129756391
aF77.11980826750154
aF77.130392187344924
aF77.140961868413058
aF77.151517289910984
aF77.162058431122546
aF77.172585271410213
aF77.183097790215456
aF77.193595967059053
aF77.204079781541083
aF77.214549213341172
aF77.225004242218745
aF77.235444848013216
aF77.245871010644123
aF77.25628271011152
aF77.266679926495812
aF77.277062639958515
aF77.287430830742068
aF77.297784479170147
aF77.308123565648032
aF77.318448070662683
aF77.328757974783073
aF77.339053258660385
aF77.349333903028366
aF77.359599888703386
aF77.369851196584932
aF77.38008780765557
aF77.390309702981639
aF77.400516863713037
aF77.410709271083846
aF77.42088690641242
aF77.431049751101909
aF77.441197786640132
aF77.45133099460034
aF77.461449356641097
aF77.471552854506911
aF77.481641470028251
aF77.491715185122118
aF77.501773981792184
aF77.511817842129105
aF77.521846748311049
aF77.531860682603622
aF77.54185962736058
aF77.551843565024086
aF77.56181247812475
aF77.571766349282342
aF77.581705161206003
aF77.591628896694488
aF77.601537538636578
aF77.611431070011548
aF77.621309473889312
aF77.631172733431072
aF77.641020831889335
aF77.650853752608555
aF77.660671479025382
aF77.670473994669052
aF77.680261283161926
aF77.690033328219428
aF77.699790113651105
aF77.709531623360306
aF77.719257841345211
aF77.728968751698659
aF77.738664338609027
aF77.748344586360446
aF77.75800947933304
aF77.767659002003555
aF77.77729313894578
aF77.786911874830849
aF77.796515194427684
aF77.806103082603499
aF77.815675524324178
aF77.82523250465465
aF77.834774008759368
aF77.844300021902825
aF77.853810529449945
aF77.863305516866362
aF77.87278496971912
aF77.882248873677071
aF77.891697214511069
aF77.901129978094843
aF77.910547150405023
aF77.91994871752199
aF77.929334665630051
aF77.938704981018063
aF77.948059650079841
aF77.95739865931462
aF77.966721995327617
aF77.976029644830263
aF77.985321594641135
aF77.994597831685809
aF78.003858342998029
aF78.013103115719588
aF78.022332137101273
aF78.031545394502999
aF78.040742875394642
aF78.049924567356058
aF78.059090458078288
aF78.06824053536323
aF78.077374787124839
aF78.086493201389118
aF78.095595766295048
aF78.104682470094787
aF78.113753301154134
aF78.122808247953458
aF78.13184729908761
aF78.140870443267019
aF78.149877669317789
aF78.158868966182382
aF78.167844322920104
aF78.176803728707526
aF78.185747172839314
aF78.194674644728309
aF78.20358613390647
aF78.212481630024968
aF78.221361122855114
aF78.23022460228853
aF78.239072058337968
aF78.247903481137627
aF78.256718860943835
aF78.26551818813536
aF78.27430145321415
aF78.283068646805759
aF78.29181975965983
aF78.300554782650806
aF78.309273706778129
aF78.31797652316709
aF78.326663223069161
aF78.33533379786266
aF78.343988239053175
aF78.352626538274052
aF78.361248687287045
aF78.36985467798273
aF78.378444502381157
aF78.38701815263218
aF78.395575621016249
aF78.404116899944611
aF78.412641981960164
aF78.421150859737637
aF78.42964352608449
aF78.438119973941056
aF78.446580196381319
aF78.455024186613343
aF78.463451937979812
aF78.471863443958483
aF78.480258698162729
aF78.488637694342117
aF78.497000426382925
aF78.505346888308409
aF78.513677074279641
aF78.521990978595852
aF78.530288595694898
aF78.538569920153861
aF78.546834946689486
aF78.55508367015878
aF78.563316085559251
aF78.571532188029749
aF78.579731972850652
aF78.587915435444643
aF78.596082571376854
aF78.604233376355694
aF78.612367846233127
aF78.620485977005131
aF78.628587764812352
aF78.63667320594034
aF78.644742296820311
aF78.652795034029296
aF78.660831414290755
aF78.668851434475187
aF78.676855091600288
aF78.684842382831619
aF78.692813305483028
aF78.700767857016984
aF78.70870603504514
aF78.71662783732873
aF78.72453326177893
aF78.732422306457522
aF78.740294969577036
aF78.748151249501404
aF78.755991144746048
aF78.763814653978798
aF78.771621776019884
aF78.779412509842501
aF78.78718685457325
aF78.794944809492378
aF78.80268637403438
aF78.81041154778822
aF78.81812033049772
aF78.825812722062125
aF78.833488722536345
aF78.841148332130984
aF78.848791551213651
aF78.856418380308057
aF78.86402882009547
aF78.871622871414388
aF78.879200535261177
aF78.886761812790297
aF78.89430670531469
aF78.901835214305976
aF78.909347341395033
aF78.916843088371991
aF78.924322457186832
aF78.931785449949402
aF78.939232068929968
aF78.946662316559355
aF78.954076195429209
aF78.961473708292459
aF78.968854858063281
aF78.976219647817643
aF78.98356808079339
aF78.990900160390623
aF78.998215890171764
aF79.00551527386196
aF79.012798315349201
aF79.020065018684605
aF79.027315388082599
aF79.034549427921149
aF79.041767142741818
aF79.048968537250346
aF79.056153616316266
aF79.063322384973588
aF79.070474848420588
aF79.077611012020412
aF79.084730881300601
aF79.09183446195388
aF79.098921759837907
aF79.105992780975441
aF79.113047531554628
aF79.120086017928941
aF79.127108246617368
aF79.13411422430454
aF79.14110395784067
aF79.148077454241857
aF79.155034720689969
aF79.161975764532784
aF79.168900593284022
aF79.175809214623413
aF79.182701636396715
aF79.189577866615736
aF79.196437913458425
aF79.203281785268715
aF79.210109490556775
aF79.216921037998731
aF79.223716436436817
aF79.230495694879323
aF79.237258822500507
aF79.24400582864061
aF79.250736722805797
aF79.257451514668091
aF79.26415021406514
aF79.270832831000476
aF79.277499375643046
aF79.284149858327496
aF79.290784289553571
aF79.297402679986519
aF79.304005040456559
aF79.310591381959014
aF79.317161715653896
aF79.323716052866075
aF79.330254405084673
aF79.336776783963344
aF79.343283201319821
aF79.349773669135701
aF79.356248199556319
aF79.362706804890493
aF79.36914949761038
aF79.375576290351091
aF79.381987195910384
aF79.388382227248741
aF79.394761397488736
aF79.40112471991489
aF79.407472207973399
aF79.413803875271768
aF79.420119735578567
aF79.426419802823006
aF79.432704091094777
aF79.438972614643404
aF79.445225387878196
aF79.451462425367737
aF79.457683741839418
aF79.463889352179251
aF79.470079271431274
aF79.476253514797264
aF79.482412097636299
aF79.488555035464231
aF79.494682343953258
aF79.500794038931701
aF79.506890136383106
aF79.512970652446242
aF79.519035603414181
aF79.525085005734056
aF79.531118876006516
aF79.537137230985081
aF79.543140087575836
aF79.549127462836637
aF79.555099373976645
aF79.561055838355813
aF79.566996873484328
aF79.572922497021921
aF79.578832726777193
aF79.584727580707266
aF79.590607076916939
aF79.59647123365815
aF79.602320069329238
aF79.608153602474474
aF79.61397185178312
aF79.619774836088993
aF79.625562574369596
aF79.63133508574559
aF79.637092389479875
aF79.642834504977117
aF79.648561451782726
aF79.654273249582317
aF79.659969918200929
aF79.665651477602125
aF79.671317947887431
aF79.676969349295192
aF79.682605702200163
aF79.688227027112461
aF79.693833344676861
aF79.699424675671807
aF79.705001041008686
aF79.710562461731001
aF79.716108959013255
aF79.721640554160459
aF79.727157268606916
aF79.732659123915411
aF79.73814614177644
aF79.743618344007018
aF79.749075752550013
aF79.754518389472935
aF79.759946276967256
aF79.765359437347186
aF79.770757893048923
aF79.776141666629428
aF79.781510780765629
aF79.786865258253286
aF79.792205122006052
aF79.797530395054295
aF79.802841100544157
aF79.80813726173669
aF79.813418902006319
aF79.818686044840234
aF79.823938713837009
aF79.829176932705693
aF79.834400725264516
aF79.839610115439982
aF79.844805127265531
aF79.849985784880488
aF79.855152112529055
aF79.860304134558845
aF79.865441875420132
aF79.870565359664212
aF79.875674611942529
aF79.880769657005359
aF79.88585051970054
aF79.890917224972583
aF79.895969797860928
aF79.901008263499122
aF79.906032647113378
aF79.911042974021299
aF79.916039269630858
aF79.921021559438714
aF79.925989869029294
aF79.930944224073272
aF79.935884650326386
aF79.94081117362812
aF79.945723819900181
aF79.950622615145534
aF79.955507585446668
aF79.960378756964559
aF79.965236155937092
aF79.970079808677795
aF79.974909741574521
aF79.979725981087782
aF79.984528553749868
aF79.989317486162847
aF79.994092804997535
aF79.998854536991971
aF80.003602708950098
aF80.008337347740039
aF80.013058480292898
aF80.017766133601327
aF80.022460334717806
aF80.027141110753547
aF80.031808488876678
aF80.036462496310833
aF80.04110316033379
aF80.045730508276037
aF80.050344567518792
aF80.054945365493111
aF80.0595329296779
aF80.064107287598617
aF80.068668466825599
aF80.073216494972726
aF80.077751399695515
aF80.082273208689955
aF80.086781949690561
aF80.091277650469181
aF80.095760338833102
aF80.100230042623679
aF80.104686789714464
aF80.10913060801002
aF80.11356152544397
aF80.117979569977422
aF80.122384769597517
aF80.126777152315668
aF80.13115674616607
aF80.135523579203749
aF80.139877679503371
aF80.144219075157096
aF80.148547794273398
aF80.15286386497506
aF80.157167315397672
aF80.161458173687905
aF80.165736468001825
aF80.170002226503257
aF80.17425547736218
aF80.178496248752637
aF80.182724568851654
aF80.186940465837026
aF80.191143967885779
aF80.195335103172624
aF80.199513899867995
aF80.203680386136469
aF80.207834590134937
aF80.211976540010966
aF80.216106263901011
aF80.220223789928909
aF80.224329146203658
aF80.228422360818101
aF80.232503461846989
aF80.236572477345334
aF80.240629435346477
aF80.24467436386054
aF80.248707290872503
aF80.252728244340574
aF80.256737252194313
aF80.260734342332867
aF80.264719542623212
aF80.268692880898527
aF80.27265438495624
aF80.276604082556119
aF80.280542001418866
aF80.284468169223942
aF80.288382613608192
aF80.292285362163653
aF80.296176442435964
aF80.300055881922532
aF80.303923708070755
aF80.307779948276192
aF80.311624629880896
aF80.3154577801714
aF80.319279426376937
aF80.323089595667923
aF80.326888315153738
aF80.330675611881333
aF80.33445151283307
aF80.33821604492509
aF80.341969235005564
aF80.345711109852701
aF80.34944169617313
aF80.353161020599885
aF80.356869109690876
aF80.360565989926698
aF80.364251687709299
aF80.367926229359682
aF80.371589641116472
aF80.375241949133866
aF80.378883179479956
aF80.382513358134872
aF80.386132510989057
aF80.389740663841224
aF80.393337842396917
aF80.396924072266359
aF80.400499378962778
aF80.404063787900782
aF80.407617324394195
aF80.41116001365458
aF80.414691880789178
aF80.418212950799528
aF80.421723248579028
aF80.425222798911818
aF80.428711626470459
aF80.432189755814363
aF80.435657211388218
aF80.439114017519771
aF80.442560198418221
aF80.445995778172744
aF80.449420780750074
aF80.452835229993411
aF80.456239149620146
aF80.459632563220453
aF80.46301549425506
aF80.466387966054
aF80.469750001814603
aF80.473101624599636
aF80.476442857335783
aF80.479773722811686
aF80.483094243676334
aF80.486404442437234
aF80.48970434145879
aF80.492993962960355
aF80.496273329014755
aF80.49954246154627
aF80.50280138232921
aF80.506050112986046
aF80.509288674985584
aF80.512517089641463
aF80.51573537811035
aF80.518943561390259
aF80.522141660318695
aF80.525329695571259
aF80.528507687659726
aF80.53167565693046
aF80.534833623562704
aF80.537981607566905
aF80.541119628783122
aF80.544247706879048
aF80.54736586134895
aF80.55047411151142
aF80.553572476508094
aF80.556660975301867
aF80.559739626675196
aF80.562808449228697
aF80.565867461379298
aF80.568916681358786
aF80.57195612721199
aF80.574985816795504
aF80.578005767775679
aF80.581015997627404
aF80.584016523632243
aF80.587007362877117
aF80.589988532252491
aF80.59296004845099
aF80.595921927965591
aF80.598874187088512
aF80.601816841909184
aF80.604749908312968
aF80.607673401979682
aF80.610587338381904
aF80.613491732783629
aF80.61638660023857
aF80.619271955588772
aF80.622147813463243
aF80.625014188276168
aF80.627871094225711
aF80.63071854529241
aF80.633556555237718
aF80.636385137602602
aF80.639204305706087
aF80.642014072643889
aF80.644814451286706
aF80.647605454279216
aF80.650387094038194
aF80.653159382751682
aF80.655922332377074
aF80.658675954639975
aF80.661420261032788
aF80.664155262813452
aF80.66688097100382
aF80.669597396388482
aF80.672304549513584
aF80.675002440685134
aF80.677691079967971
aF80.68037047718434
aF80.683040641912612
aF80.685701583485866
aF80.688353310990877
aF80.690995833266626
aF80.693629158903036
aF80.696253296239789
aF80.69886825336522
aF80.701474038114682
aF80.704070658069725
aF80.706658120556654
aF80.709236432645369
aF80.711805601148271
aF80.714365632618936
aF80.716916533350982
aF80.719458309377018
aF80.721990966467189
aF80.724514510128401
aF80.727028945603081
aF80.729534277867742
aF80.732030511632388
aF80.734517651338905
aF80.736995701160453
aF80.739464664999943
aF80.741924546489287
aF80.744375348988086
aF80.746817075582939
aF80.749249729085989
aF80.751673312034129
aF80.754087826687979
aF80.756493275030948
aF80.758889658767885
aF80.761276979324748
aF80.763655237846905
aF80.766024435198688
aF80.768384571962301
aF80.770735648436712
aF80.773077664637057
aF80.775410620293513
aF80.777734514850408
aF80.780049347465322
aF80.782355117008336
aF80.784651822061122
aF80.786939460915988
aF80.789218031575061
aF80.791487531749652
aF80.793747958859157
aF80.795999310030467
aF80.798241582097063
aF80.800474771598331
aF80.802698874778628
aF80.804913887586807
aF80.807119805675114
aF80.809316624398846
aF80.811504338815212
aF80.813682943683048
aF80.815852433461885
aF80.818012802311216
aF80.820164044090035
aF80.822306152356092
aF80.824439120365085
aF80.826562941070392
aF80.828677607122074
aF80.830783110866591
aF80.832879444345849
aF80.834966599297019
aF80.837044567151821
aF80.839113339035734
aF80.841172905767905
aF80.843223257860288
aF80.845264385517197
aF80.847296278634857
aF80.849318926800962
aF80.851332319294144
aF80.853336445083357
aF80.855331292827913
aF80.857316850876359
aF80.859293107266708
aF80.861260049725658
aF80.863217665668273
aF80.865165942197621
aF80.867104866104583
aF80.869034423867149
aF80.870954601650269
aF80.872865385305758
aF80.874766760371543
aF80.876658712071631
aF80.8785412253159
aF80.880414284699583
aF80.882277874503174
aF80.884131978692267
aF80.885976580917145
aF80.88781166451264
aF80.889637212497917
aF80.89145320757639
aF80.893259632135511
aF80.895056468246452
aF80.896843697664195
aF80.89862130182722
aF80.900389261857711
aF80.902147558560898
aF80.903896172425533
aF80.905635083623508
aF80.907364272009815
aF80.90908371712267
aF80.910793398183401
aF80.912493294096237
aF80.914183383448702
aF80.915863644511347
aF80.917534055237766
aF80.919194593264862
aF80.920845235912736
aF80.92248596018473
aF80.924116742767609
aF80.925737560031791
aF80.927348388031092
aF80.928949202503205
aF80.930539978869717
aF80.932120692236239
aF80.933691317392729
aF80.935251828813449
aF80.936802200657354
aF80.938342406768299
aF80.939872420675229
aF80.941392215592401
aF80.94290176441973
aF80.944401039742957
aF80.945890013834131
aF80.947368658651712
aF80.948836945840981
aF80.950294846734593
aF80.951742332352396
aF80.953179373402492
aF80.954605940280914
aF80.956022003072761
aF80.957427531551886
aF80.958822495181778
aF80.960206863116213
aF80.9615806041989
aF80.96294368696482
aF80.964296079640206
aF80.965637750143429
aF80.966968666084895
aF80.968288794768355
aF80.969598103190975
aF80.970896558043933
aF80.972184125713156
aF80.973460772279907
aF80.97472646352125
aF80.975981164910777
aF80.97722484161919
aF80.978457458515237
aF80.9796789801659
aF80.98088937083746
aF80.982088594496133
aF80.983276614808659
aF80.984453395143163
aF80.985618898569896
aF80.986773087861977
aF80.987915925495955
aF80.989047373653264
aF80.990167394220137
aF80.991275948789252
aF80.992372998659889
aF80.993458504839424
aF80.994532428043613
aF80.99559472869808
aF80.996645366938523
aF80.997684302612285
aF80.998711495278926
aF80.999726904211329
aF81.000730488396528
aF81.001722206536726
aF81.002702017050467
aF81.003669878073367
aF81.004625747459443
aF81.005569582781845
aF81.006501341334186
aF81.007420980131442
aF81.008328455911041
aF81.009223725134149
aF81.010106743986555
aF81.010977468380077
aF81.011835853953301
aF81.012681856073286
aF81.013515429836147
aF81.014336530068817
aF81.015145111329943
aF81.015941127911077
aF81.016724533838143
aF81.017495282872403
aF81.018253328512031
aF81.018998623993269
aF81.019731122291674
aF81.020450776123482
aF81.021157537946976
aF81.021851359963733
aF81.022532194120132
aF81.023199992108701
aF81.023854705369388
aF81.024496285091118
aF81.025124682213004
aF81.02573984742628
aF81.026341731175009
aF81.026930283658231
aF81.027505454831001
aF81.028067194406205
aF81.028615451855856
aF81.029150176412713
aF81.029671317071774
aF81.030178822591949
aF81.030672641497546
aF81.031152722079696
aF81.031619012398409
aF81.032071460283703
aF81.032510013337557
aF81.032934618935457
aF81.033345224227958
aF81.033741776142492
aF81.034124221385127
aF81.034492506442007
aF81.034846577581376
aF81.035186380854995
aF81.035511862100336
aF81.035822966941751
aF81.036119640792933
aF81.036401828858004
aF81.036669476133994
aF81.036922527412045
aF81.037160927279785
aF81.037384620122737
aF81.037593550126616
aF81.037787661278614
aF81.03796689737004
aF81.03813120199753
aF81.038280518565443
aF81.038414790287462
aF81.038533960188985
aF81.0386379711084
aF81.038726765699806
aF81.03880028643448
aF81.038858475603064
aF81.038901275317642
aF81.038928627513513
aF81.038940473951655
aF81.038936756220394
aF81.038917415737572
aF81.038882393752814
aF81.03883163134941
aF81.038765069446455
aF81.038682648801
aF81.038584310010265
aF81.038469993513758
aF81.038339639595179
aF81.03819318838498
aF81.038030579862351
aF81.037851753857424
aF81.037656650053393
aF81.037445207988952
aF81.037217367060407
aF81.036973066523871
aF81.036712245497625
aF81.036434842964269
aF81.036140797773243
aF81.035830048642808
aF81.035502534162433
aF81.035158192795407
aF81.03479696288079
aF81.034418782635967
aF81.034023590158796
aF81.033611323430335
aF81.033181920316849
aF81.03273531857235
aF81.032271455841013
aF81.031790269659624
aF81.031291697459736
aF81.030775676570514
aF81.030242144220892
aF81.029691037541951
aF81.029122293569699
aF81.028535849247348
aF81.027931641427585
aF81.02730960687559
aF81.026669682270963
aF81.026011804210839
aF81.025335909211719
aF81.024641933712559
aF81.023929814077135
aF81.023199486596425
aF81.022450887491516
aF81.021683952915851
aF81.020898618957872
aF81.020094821643752
aF81.019272496939948
aF81.018431580755731
aF81.017572008945763
aF81.016693717312805
aF81.015796641610365
aF81.014880717545296
aF81.013945880780511
aF81.012992066937358
aF81.012019211598812
aF81.011027250311514
aF81.010016118588965
aF81.008985751914011
aF81.007936085741406
aF81.006867055500848
aF81.005778596599185
aF81.004670644423754
aF81.003543134344511
aF81.002396001717102
aF81.00122918188562
aF81.000042610185076
aF80.998836221944387
aF80.997609952489043
aF80.996363737143895
aF80.995097511235784
aF80.993811210096524
aF80.992504769065533
aF80.991178123492659
aF80.98983120874091
aF80.988463960189335
aF80.98707631323586
aF80.985668203299767
aF80.984239565824907
aF80.982790336282363
aF80.981320450173044
aF80.979829843030871
aF80.978318450425334
aF80.976786207964381
aF80.975233051297309
aF80.973658916117486
aF80.972063738165303
aF80.970447453230889
aF80.968809997157081
aF80.96715130584208
aF80.965471315242567
aF80.963769961376215
aF80.962047180324859
aF80.960302908237239
aF80.95853708133167
aF80.956749635899087
aF80.954940508305953
aF80.953109634996906
aF80.951256952497772
aF80.949382397418432
aF80.94748590645564
aF80.945567416395704
aF80.943626864117689
aF80.941664186596114
aF80.939679320903721
aF80.937672204214479
aF80.935642773806336
aF80.933590967064177
aF80.931516721482666
aF80.929419974668917
aF80.927300664345651
aF80.925158728353921
aF80.922994104655913
aF80.920806731337734
aF80.918596546612491
aF80.916363488823009
aF80.914107496444586
aF80.911828508088092
aF80.90952646250247
aF80.907201298577917
aF80.904852955348417
aF80.90248137199481
aF80.900086487847517
aF80.897668242389315
aF80.895226575258306
aF80.892761426250473
aF80.890272735322924
aF80.887760442596203
aF80.885224488357494
aF80.882664813063073
aF80.880081357341595
aF80.877474061996267
aF80.874842868008059
aF80.872187716538392
aF80.869508548931933
aF80.866805306719243
aF80.864077931619534
aF80.861326365543633
aF80.858550550596519
aF80.855750429080203
aF80.85292594349643
aF80.850077036549195
aF80.847203651147836
aF80.84430573040953
aF80.841383217661956
aF80.838436056446056
aF80.835464190518863
aF80.832467563855914
aF80.829446120654097
aF80.826399805334347
aF80.823328562544177
aF80.820232337160391
aF80.817111074291645
aF80.813964719281202
aF80.810793217709588
aF80.80759651539698
aF80.804374558405925
aF80.801127293043947
aF80.797854665866254
aF80.794556623677849
aF80.791233113536862
aF80.787884082756094
aF80.784509478906529
aF80.78110924981921
aF80.777683343588095
aF80.774231708572344
aF80.770754293398866
aF80.767251046964986
aF80.763721918440496
aF80.760166857270733
aF80.756585813178191
aF80.752978736165787
aF80.749345576518806
aF80.745686284807235
aF80.742000811888644
aF80.738289108909797
aF80.734551127309814
aF80.730786818822068
aF80.726996135476497
aF80.723179029602179
aF80.719335453829416
aF80.715465361092171
aF80.711568704630224
aF80.707645437991516
aF80.703695515034411
aF80.699718889929912
aF80.695715517163791
aF80.69168535153895
aF80.687628348177469
aF80.683544462522931
aF80.679433650342361
aF80.675295867728565
aF80.671131071102252
aF80.666939217213908
aF80.662720263146184
aF80.658474166315798
aF80.654200884475657
aF80.649900375716868
aF80.645572598470878
aF80.641217511511115
aF80.636835073955666
aF80.632425245268365
aF80.627987985261683
aF80.62352325409779
aF80.619031012291217
aF80.614511220710213
aF80.609963840578999
aF80.605388833479438
aF80.6007861613529
aF80.596155786502266
aF80.591497671593331
aF80.586811779657225
aF80.582098074091661
aF80.57735651866281
aF80.572587077507208
aF80.567789715133358
aF80.562964396423382
aF80.55811108663481
aF80.553229751402228
aF80.548320356738856
aF80.543382869038084
aF80.538417255075387
aF80.533423482009638
aF80.528401517384722
aF80.523351329131103
aF80.518272885567512
aF80.513166155402004
aF80.508031107734027
aF80.502867712055391
aF80.497675938252002
aF80.492455756605253
aF80.487207137793163
aF80.48193005289221
aF80.476624473378322
aF80.471290371128418
aF80.465927718421526
aF80.460536487940416
aF80.455116652772475
aF80.449668186411344
aF80.444191062757881
aF80.438685256121516
aF80.433150741221411
aF80.427587493187616
aF80.421995487562214
aF80.41637470030058
aF80.410725107772294
aF80.405046686762347
aF80.399339414472252
aF80.393603268520906
aF80.387838226945931
aF80.382044268204254
aF80.376221371173514
aF80.370369515152703
aF80.364488679863427
aF80.358578845450367
aF80.352639992482636
aF80.34667210195434
aF80.34067515528568
aF80.334649134323598
aF80.32859402134261
aF80.322509799045648
aF80.316396450564895
aF80.310253959462301
aF80.304082309730546
aF80.297881485793653
aF80.291651472507652
aF80.285392255161241
aF80.279103819476475
aF80.272786151609282
aF80.266439238150156
aF80.260063066124673
aF80.253657622994098
aF80.247222896655913
aF80.240758875444214
aF80.234265548130281
aF80.227742903923073
aF80.221190932469597
aF80.214609623855495
aF80.20799896860521
aF80.201358957682402
aF80.194689582490611
aF80.187990834873219
aF80.181262707113831
aF80.174505191936873
aF80.167718282507366
aF80.160901972431844
aF80.154056255757737
aF80.147181126974459
aF80.140276581012913
aF80.133342613245972
aF80.126379219488683
aF80.119386395998234
aF80.11236413947411
aF80.105312447058168
aF80.09823131633479
aF80.09112074533077
aF80.083980732515471
aF80.076811276800854
aF80.069612377541233
aF80.062384034533451
aF80.055126248016876
aF80.047839018673145
aF80.040522347626023
aF80.033176236441534
aF80.025800687127642
aF80.0183957021341
aF80.010961284352391
aF80.003497437115243
aF79.996004164196947
aF79.988481469812555
aF79.980929358617843
aF79.97334783570912
aF79.965736906622922
aF79.958096577335539
aF79.95042685426283
aF79.942727744259855
aF79.934999254620408
aF79.927241393076713
aF79.919454167799032
aF79.911637587395191
aF79.903791660910187
aF79.895916397825559
aF79.888011808059176
aF79.880077901964526
aF79.872114690330264
aF79.864122184379738
aF79.85610039577027
aF79.848049336592908
aF79.839969019371267
aF79.831859457061682
aF79.823720663051873
aF79.815552651160814
aF79.807355435637703
aF79.79912903116157
aF79.790873452840472
aF79.782588716210796
aF79.774274837236391
aF79.765931832308127
aF79.757559718242931
aF79.749158512282946
aF79.740728232094995
aF79.732268895769522
aF79.723780521819947
aF79.715263129181636
aF79.706716737211408
aF79.698141365686098
aF79.689537034802257
aF79.680903765174932
aF79.672241577836758
aF79.6635504942371
aF79.654830536241178
aF79.646081726128941
aF79.637304086594156
aF79.628497640743518
aF79.619662412095522
aF79.6107984245795
aF79.60190570253468
aF79.592984270708811
aF79.584034154257608
aF79.57505537874323
aF79.566047970133468
aF79.557011954800572
aF79.547947359519981
aF79.538854211469513
aF79.529732538227989
aF79.520582367774125
aF79.511403728485419
aF79.502196649136934
aF79.492961158900172
aF79.483697287341684
aF79.474405064422299
aF79.465084520495239
aF79.455735686305559
aF79.446358592988332
aF79.436953272067825
aF79.42751975545599
aF79.418058075451185
aF79.408568264737085
aF79.399050356381139
aF79.389504383833213
aF79.379930380924705
aF79.370328381866727
aF79.360698421248884
aF79.351040534038091
aF79.341354755576987
aF79.331641121582791
aF79.32189966814569
aF79.31213043172761
aF79.302333449160557
aF79.292508757645663
aF79.28265639475137
aF79.27277639841202
aF79.262868806926633
aF79.252933658957232
aF79.242970993527663
aF79.232980850021718
aF79.222963268182028
aF79.212918288108483
aF79.202845950256574
aF79.192746295436166
aF79.182619364809696
aF79.172465199890937
aF79.162283842543218
aF79.152075334978107
aF79.14183971975379
aF79.131577039773489
aF79.121287338284006
aF79.110970658874038
aF79.100627045472606
aF79.09025654234776
aF79.079859194104642
aF79.06943504568406
aF79.058984142361027
aF79.048506529742809
aF79.0380022537678
aF79.027471360703501
aF79.016913897144988
aF79.006329910013591
aF78.995719446554915
aF78.985082554337254
aF78.974419281250263
aF78.963729675502933
aF78.953013785622161
aF78.942271660450999
aF78.931503349147164
aF78.9207089011812
aF78.909888366334854
aF78.899041794699443
aF78.888169236674273
aF78.877270742964669
aF78.866346364580721
aF78.855396152835183
aF78.84442015934215
aF78.833418436014981
aF78.822391035064925
aF78.811338008999456
aF78.800259410620143
aF78.789155293021437
aF78.778025709588789
aF78.766870713996724
aF78.755690360207581
aF78.744484702469222
aF78.733253795313914
aF78.721997693556261
aF78.710716452291365
aF78.69941012689354
aF78.688078773014212
aF78.676722446580285
aF78.665341203792508
aF78.65393510112365
aF78.642504195316775
aF78.631048543383557
aF78.619568202602409
aF78.608063230517061
aF78.596533684934428
aF78.584979623923175
aF78.573401105811712
aF78.561798189186774
aF78.550170932891348
aF78.538519396023162
aF78.526843637932899
aF78.515143718222319
aF78.503419696742753
aF78.491671633593029
aF78.479899589118162
aF78.468103623907169
aF78.456283798791617
aF78.444440174843876
aF78.432572813375003
aF78.420681775933616
aF78.408767124303566
aF78.396828920502585
aF78.384867226780315
aF78.372882105616725
aF78.360873619720238
aF78.348841832026096
aF78.336786805694487
aF78.324708604109048
aF78.312607290874837
aF78.300482929816738
aF78.28833558497783
aF78.276165320617395
aF78.263972201209484
aF78.251756291440898
aF78.239517656209657
aF78.227256360623215
aF78.214972469996724
aF78.202666049851302
aF78.190337165912268
aF78.177985884107585
aF78.165612270565958
aF78.153216391615132
aF78.140798313780365
aF78.128358103782489
aF78.115895828536338
aF78.103411555148924
aF78.090905350917865
aF78.07837728332953
aF78.065827420057587
aF78.053255828960957
aF78.040662578082404
aF78.028047735646794
aF78.015411370059113
aF78.002753549903247
aF77.990074343940009
aF77.977373821105417
aF77.964652050509287
aF77.951909101433131
aF77.93914504332902
aF77.926359945817339
aF77.913553878685605
aF77.900726911886551
aF77.887879115536506
aF77.875010559913704
aF77.86212131545669
aF77.849211452762844
aF77.836281042586265
aF77.823330155836587
aF77.810358863577108
aF77.797367237023138
aF77.784355347540668
aF77.771323266644188
aF77.758271065995643
aF77.745198817402411
aF77.732106592815938
aF77.71899446432991
aF77.70586250417881
aF77.692710784736207
aF77.679539378513226
aF77.666348358156952
aF77.65313779644876
aF77.639907766302841
aF77.626658340764465
aF77.613389593008577
aF77.600101596338021
aF77.58679442418223
aF77.573468150095351
aF77.560122847754954
aF77.546758590960351
aF77.533375453630953
aF77.519973509804913
aF77.506552833637457
aF77.493113499399328
aF77.47965558147537
aF77.466179154362891
aF77.452684292670099
aF77.439171071114828
aF77.425639564522598
aF77.412089847825513
aF77.398521996060538
aF77.384936084367993
aF77.371332187990205
aF77.3577103822699
aF77.34407074264854
aF77.330413344665288
aF77.316738263955145
aF77.303045576247541
aF77.289335357365047
aF77.275607683221807
aF77.261862629821906
aF77.248100273258189
aF77.234320689710643
aF77.220523955445088
aF77.206710146811574
aF77.19287934024301
aF77.179031612253908
aF77.165167039438643
aF77.151285698470289
aF77.137387666099073
aF77.123473019151064
aF77.109541834526652
aF77.095594189199332
aF77.08163016021409
aF77.067649824686143
aF77.053653259799546
aF77.039640542805913
aF77.02561175102278
aF77.011566961832557
aF76.997506252680893
aF76.983429701075494
aF76.969337384584733
aF76.9552293808363
aF76.941105767515879
aF76.92696662236574
aF76.912812023183548
aF76.898642047820886
aF76.884456774182013
aF76.870256280222719
aF76.856040643948575
aF76.841809943414148
aF76.827564256721416
aF76.813303662018455
aF76.799028237498348
aF76.784738061397718
aF76.770433211995552
aF76.756113767611893
aF76.741779806606701
aF76.727431407378333
aF76.713068648362551
aF76.69869160803124
aF76.684300364890973
aF76.669894997482032
aF76.655475584377001
aF76.641042204179598
aF76.626594935523499
aF76.6121338570711
aF76.597659047512209
aF76.58317058556311
aF76.568668549965039
aF76.554153019483209
aF76.539624072905653
aF76.525081789041835
aF76.510526246721625
aF76.49595752479425
aF76.481375702126869
aF76.466780857603524
aF76.452173070124132
aF76.437552418603204
aF76.422918981968593
aF76.408272839160588
aF76.393614069130734
aF76.378942750840594
aF76.364258963260696
aF76.349562785369457
aF76.334854296152088
aF76.320133574599481
aF76.305400699706951
aF76.290655750473405
aF76.275898805900198
aF76.261129944989818
aF76.246349246745197
aF76.231556790168284
aF76.216752654259324
aF76.201936918015463
aF76.18710966042994
aF76.172270960491005
aF76.157420897180742
aF76.142559549474242
aF76.127686996338454
aF76.11280331673106
aF76.097908589599768
aF76.083002893881087
aF76.068086308499161
aF76.05315891236522
aF76.038220784376108
aF76.023272003413695
aF76.00831264834369
aF75.993342798014524
aF75.978362531256735
aF75.963371926881692
aF75.948371063680881
aF75.933360020424715
aF75.918338875861764
aF75.903307708717634
aF75.888266597694326
aF75.873215621468944
aF75.858154858693027
aF75.843084387991524
aF75.828004287961846
aF75.812914637173151
aF75.797815514165109
aF75.782706997447335
aF75.767589165498222
aF75.752462096764276
aF75.737325869659088
aF75.722180562562514
aF75.707026253819834
aF75.691863021740701
aF75.676690944598562
aF75.661510100629599
aF75.646320568032039
aF75.631122424965028
aF75.615915749548137
aF75.60070061986022
aF75.585477113938907
aF75.570245309779366
aF75.555005285334019
aF75.539757118511147
aF75.524500887174526
aF75.509236669142382
aF75.493964542186802
aF75.478684584032578
aF75.463396872357023
aF75.448101484788452
aF75.432798498906024
aF75.417487992238577
aF75.402170042264132
aF75.386844726408995
aF75.371512122046909
aF75.35617230649855
aF75.340825357030553
aF75.325471350854983
aF75.310110365128352
aF75.294742476951143
aF75.279367763366892
aF75.263986301361598
aF75.248598167862923
aF75.233203439739512
aF75.21780219380031
aF75.202394506793894
aF75.186980455407735
aF75.171560116267429
aF75.156133565936187
aF75.140700880914039
aF75.125262137637179
aF75.109817412477398
aF75.094366781741229
aF75.078910321669426
aF75.063448108436361
aF75.047980218149178
aF75.032506726847458
aF75.017027710502177
aF75.001543245015412
aF74.986053406219668
aF74.970558269877074
aF74.955057911678921
aF74.939552407245003
aF74.924041832123052
aF74.90852626178804
aF74.893005771641725
aF74.877480437011954
aF74.861950333151995
aF74.84641553524024
aF74.830876118379322
aF74.815332157595705
aF74.799783727839085
aF74.784230903981808
aF74.768673760818416
aF74.753112373064852
aF74.737546815358229
aF74.72197716225601
aF74.706403488235622
aF74.690825867693917
aF74.675244374946558
aF74.659659084227599
aF74.644070069688922
aF74.628477405399678
aF74.612881165345826
aF74.597281423429678
aF74.581678253469235
aF74.566071729197915
aF74.550461924263843
aF74.534848912229521
aF74.519232766571335
aF74.503613560678971
aF74.487991367855017
aF74.472366261314505
aF74.45673831418442
aF74.441107599503312
aF74.425474190220712
aF74.409838159196738
aF74.394199579201782
aF74.378558522915881
aF74.362915062928323
aF74.347269271737318
aF74.331621221749529
aF74.315970985279563
aF74.300318634549626
aF74.284664241689129
aF74.269007878734271
aF74.253349617627592
aF74.237689530217679
aF74.222027688258478
aF74.206364163409432
aF74.19069902723453
aF74.175032351202375
aF74.159364206685424
aF74.143694664959952
aF74.128023797205486
aF74.112351674504481
aF74.096678367842031
aF74.081003948105419
aF74.065328486083757
aF74.049652052467735
aF74.03397471784929
aF74.018296552721111
aF74.002617627476496
aF73.9869380124088
aF73.971257777711415
aF73.955576993477194
aF73.939895729698165
aF73.924214056265356
aF73.908532042968403
aF73.892849759495206
aF73.87716727543166
aF73.861484660261468
aF73.845801983365646
aF73.830119314022383
aF73.814436721406764
aF73.79875427459038
aF73.783072042541178
aF73.76739009412313
aF73.751708498095851
aF73.736027323114683
aF73.720346637730003
aF73.704666510387312
aF73.688987009426768
aF73.673308203083067
aF73.657630159485137
aF73.641952946655948
aF73.626276632512187
aF73.610601284864174
aF73.594926971415489
aF73.57925375976285
aF73.563581717395863
aF73.547910911696775
aF73.532241409940283
aF73.516573279293368
aF73.500906586815105
aF73.485241399456285
aF73.469577784059481
aF73.453915807358726
aF73.438255535979252
aF73.42259703643748
aF73.406940375140607
aF73.391285618386775
aF73.375632832364516
aF73.359982083152829
aF73.344333436720987
aF73.328686958928259
aF73.313042715523906
aF73.297400772146901
aF73.281761194325838
aF73.26612404747884
aF73.250489396913281
aF73.234857307825706
aF73.219227845301788
aF73.203601074316154
aF73.187977059732063
aF73.172355866301587
aF73.15673755866527
aF73.141122201352147
aF73.125509858779495
aF73.109900595252896
aF73.094294474965906
aF73.07869156200023
aF73.06309192032532
aF73.047495613798503
aF73.031902706164857
aF73.016313261056951
aF73.000727341995031
aF72.98514501238671
aF72.96956633552702
aF72.953991374598203
aF72.93842019266981
aF72.922852852698512
aF72.907289417528077
aF72.891729949889296
aF72.87617451239997
aF72.860623167564711
aF72.845075977775053
aF72.829533005309344
aF72.813994312332724
aF72.798459960896963
aF72.782930012940596
aF72.767404530288786
aF72.751883574653306
aF72.736367207632441
aF72.720855490711173
aF72.705348485260885
aF72.689846252539525
aF72.67434885369147
aF72.658856349747751
aF72.643368801625712
aF72.627886270129153
aF72.612408815948413
aF72.596936499660202
aF72.581469381727715
aF72.566007522500655
aF72.550550982215128
aF72.53509982099375
aF72.519654098845507
aF72.504213875666096
aF72.488779211237528
aF72.473350165228482
aF72.457926797194148
aF72.442509166576301
aF72.42709733270344
aF72.411691354790548
aF72.396291291939434
aF72.380897203138574
aF72.365509147263268
aF72.350127183075557
aF72.334751369224449
aF72.319381764245705
aF72.30401842656218
aF72.288661414483727
aF72.273310786207233
aF72.25796659981674
aF72.242628913283525
aF72.227297784466046
aF72.21197327111021
aF72.196655430849177
aF72.181344321203738
aF72.166039999582154
aF72.150742523280329
aF72.135451949481833
aF72.120168335258143
aF72.104891737568508
aF72.089622213260228
aF72.074359819068619
aF72.05910461161713
aF72.043856647417542
aF72.028615982869894
aF72.013382674262786
aF71.998156777773232
aF71.982938349466991
aF71.967727445298593
aF71.952524121111409
aF71.937328432637841
aF71.922140435499315
aF71.906960185206515
aF71.891787737159561
aF71.876623146647944
aF71.861466468850679
aF71.846317758836634
aF71.831177071564412
aF71.816044461882584
aF71.800919984529912
aF71.785803694135382
aF71.770695645218211
aF71.755595892188296
aF71.740504489346051
aF71.725421490882894
aF71.71034695088089
aF71.695280923313504
aF71.680223462045191
aF71.66517462083192
aF71.650134453321172
aF71.635103013052102
aF71.620080353455791
aF71.605066527855286
aF71.590061589465776
aF71.575065591394889
aF71.560078586642618
aF71.545100628101679
aF71.530131768557709
aF71.515172060689281
aF71.500221557068102
aF71.485280310159297
aF71.470348372321538
aF71.455425795807102
aF71.440512632762236
aF71.425608935227331
aF71.41071475513678
aF71.395830144319632
aF71.38095515449946
aF71.366089837294723
aF71.351234244218645
aF71.336388426679974
aF71.321552435982582
aF71.306726323326004
aF71.291910139805509
aF71.277103936412388
aF71.262307764034006
aF71.247521673454173
aF71.232745715353218
aF71.217979940308226
aF71.203224398793267
aF71.188479141179656
aF71.17374421773593
aF71.15901967862834
aF71.14430557392096
aF71.129601953575786
aF71.114908867453011
aF71.100226365311499
aF71.085554496808399
aF71.070893311500086
aF71.056242858841827
aF71.041603188188219
aF71.026974348793402
aF71.012356389811259
aF70.997749360295714
aF70.983153309200759
aF70.968568285380854
aF70.953994337591212
aF70.939431514487737
aF70.924879864627528
aF70.910339436469116
aF70.895810278372295
aF70.881292438599019
aF70.866785965312971
aF70.852290906580208
aF70.837807310369357
aF70.823335224551641
aF70.808874696901299
aF70.794425775095746
aF70.779988506715853
aF70.765562939246237
aF70.75114912007524
aF70.736747096495634
aF70.722356915704296
aF70.707978624802976
aF70.693612270798241
aF70.679257900601741
aF70.664915561030483
aF70.650585298807187
aF70.636267160560351
aF70.621961192824713
aF70.607667442041162
aF70.593385954557363
aF70.579116776627757
aF70.564859954413961
aF70.550615533984868
aF70.536383561317038
aF70.522164082294864
aF70.507957142710822
aF70.493762788265812
aF70.479581064569317
aF70.465412017139641
aF70.451255691404342
aF70.437112132700165
aF70.422981386273634
aF70.408863497281146
aF70.394758510789188
aF70.38066647177466
aF70.366587425125147
aF70.352521415639075
aF70.33846848802618
aF70.324428686907467
aF70.310402056815732
aF70.296388642195581
aF70.282388487404035
aF70.268401636710408
aF70.254428134296745
aF70.240468024258149
aF70.226521350602866
aF70.212588157252753
aF70.19866848804331
aF70.184762386724074
aF70.170869896958934
aF70.156991062326242
aF70.143125926319144
aF70.129274532345931
aF70.115436923730073
aF70.101613143710679
aF70.087803235442792
aF70.074007241997379
aF70.060225206361878
aF70.046457171440323
aF70.032703180053645
aF70.018963274939821
aF70.005237498754369
aF69.991525894070321
aF69.97782850337876
aF69.964145369088868
aF69.950476533528231
aF69.936822038943276
aF69.923181927499229
aF69.909556241280583
aF69.895945022291414
aF69.882348312455306
aF69.868766153616065
aF69.855198587537643
aF69.841645655904472
aF69.828107400321812
aF69.814583862315885
aF69.801075083334268
aF69.78758110474601
aF69.774101967842
aF69.760637713835138
aF69.747188383860603
aF69.733754018976271
aF69.720334660162635
aF69.706930348323354
aF69.693541124285517
aF69.680167028799559
aF69.66680810253996
aF69.653464386105099
aF69.640135920017883
aF69.626822744725587
aF69.613524900600467
aF69.600242427939833
aF69.586975366966328
aF69.573723757828077
aF69.56048764059922
aF69.547267055279832
aF69.534062041796389
aF69.520872640001926
aF69.507698889676192
aF69.494540830526191
aF69.481398502186096
aF69.468271944217591
aF69.455161196110311
aF69.442066297281812
aF69.428987287077945
aF69.415924204773091
aF69.402877089570396
aF69.389845980602004
aF69.376830916929194
aF69.363831937542898
aF69.350849081363577
aF69.337882387241791
aF69.324931893958109
aF69.311997640223666
aF69.299079664680178
aF69.286178005900169
aF69.273292702387437
aF69.26042379257693
aF69.247571314835298
aF69.234735307460923
aF69.221915808684187
aF69.209112856667801
aF69.196326489506887
aF69.183556745229225
aF69.170803661795659
aF69.158067277099988
aF69.145347628969546
aF69.13264475516506
aF69.119958693381292
aF69.107289481246823
aF69.094637156324538
aF69.082001756111808
aF69.069383318040622
aF69.056781879477853
aF69.04419747772549
aF69.031630150020746
aF69.01907993353646
aF69.006546865381097
aF68.994030982599071
aF68.981532322170949
aF68.969050921013576
aF68.956586815980486
aF68.944140043861694
aF68.93171064138437
aF68.919298645212763
aF68.906904091948434
aF68.894527018130518
aF68.88216746023582
aF68.869825454679173
aF68.857501037813435
aF68.845194245929761
aF68.832905115257901
aF68.820633681966257
aF68.808379982162052
aF68.796144051891602
aF68.783925927140501
aF68.771725643833705
aF68.759543237835899
aF68.747378744951405
aF68.735232200924614
aF68.723103641440048
aF68.710993102122544
aF68.698900618537479
aF68.686826226190732
aF68.674769960529289
aF68.662731856940951
aF68.650711950754754
aF68.638710277241074
aF68.626726871611822
aF68.614761769020561
aF68.6028150045627
aF68.590886613275686
aF68.578976630139096
aF68.567085090074698
aF68.555212027947022
aF68.543357478562911
aF68.531521476672097
aF68.519704056967441
aF68.507905254084534
aF68.496125102602477
aF68.4843636370436
aF68.472620891873746
aF68.460896901502579
aF68.449191700283336
aF68.437505322513331
aF68.425837802433961
aF68.414189174230799
aF68.402559472033772
aF68.390948729917312
aF68.379356981900457
aF68.36778426194698
aF68.3562306039655
aF68.344696041809726
aF68.333180609278401
aF68.321684340115553
aF68.310207268010529
aF68.298749426598278
aF68.287310849459175
aF68.275891570119455
aF68.264491622051224
aF68.253111038672344
aF68.241749853346874
aF68.23040809938496
aF68.219085810043126
aF68.207783018524211
aF68.196499757977477
aF68.185236061498856
aF68.173991962130941
aF68.16276749286304
aF68.151562686631408
aF68.14037757631921
aF68.129212194756747
aF68.118066574721439
aF68.106940748937888
aF68.095834750078126
aF68.084748610761508
aF68.073682363554937
aF68.062636040972848
aF68.051609675477451
aF68.040603299478562
aF68.0296169453338
aF68.018650645348814
aF68.007704431777043
aF67.996778336820114
aF67.985872392627641
aF67.974986631297412
aF67.964121084875472
aF67.953275785356141
aF67.942450764682121
aF67.931646054744547
aF67.920861687382967
aF67.910097694385385
aF67.899354107488591
aF67.888630958377846
aF67.877928278687165
aF67.867246099999193
aF67.856584453845542
aF67.84594337170644
aF67.835322885011067
aF67.824723025137573
aF67.81414382341292
aF67.803585311113167
aF67.793047519463286
aF67.782530479637387
aF67.772034222758577
aF67.76155877989919
aF67.751104182080553
aF67.740670460273265
aF67.730257645397046
aF67.719865768320858
aF67.709494859862914
aF67.699144950790597
aF67.688816071820639
aF67.678508253618944
aF67.668221526800863
aF67.657955921930906
aF67.647711469522875
aF67.637488200040153
aF67.627286143895077
aF67.617105331449537
aF67.606945793014688
aF67.596807558851026
aF67.586690659168411
aF67.576595124125873
aF67.56652098383195
aF67.556468268344432
aF67.546437007670278
aF67.536427231765828
aF67.526438970536816
aF67.516472253837946
aF67.50652711147346
aF67.496603573196623
aF67.486701668709998
aF67.476821427665328
aF67.466962879663413
aF67.457126054254331
aF67.447310980937104
aF67.437517689159961
aF67.427746208320059
aF67.417996567763694
aF67.40826879678599
aF67.398562924631079
aF67.388878980492024
aF67.379216993510667
aF67.369576992777738
aF67.359959007332677
aF67.350363066163709
aF67.340789198207617
aF67.331237432350008
aF67.321707797424921
aF67.31220032221492
aF67.302715035451101
aF67.293251965812956
aF67.283811141928354
aF67.274392592373374
aF67.264996345672472
aF67.25562243029816
aF67.246270874671069
aF67.236941707159986
aF67.227634956081545
aF67.218350649700284
aF67.209088816228729
aF67.199849483826995
aF67.19063268060296
aF67.181438434612105
aF67.172266773857501
aF67.163117726289528
aF67.153991319806067
aF67.14488758225221
aF67.135806541420351
aF67.126748225049937
aF67.117712660827337
aF67.108699876386154
aF67.09970989930649
aF67.090742757115507
aF67.081798477286881
aF67.072877087240812
aF67.063978614344137
aF67.05510308590992
aF67.046250529197565
aF67.037420971412615
aF67.028614439706715
aF67.019830961177519
aF67.01107056286844
aF67.002333271768634
aF66.993619114813043
aF66.984928118881982
aF66.976260310801322
aF66.967615717342113
aF66.958994365220676
aF66.950396281098392
aF66.941821491581578
aF66.933270023221439
aF66.924741902513802
aF66.916237155899211
aF66.907755809762619
aF66.89929789043326
aF66.890863424184701
aF66.882452437234605
aF66.874064955744501
aF66.865701005819844
aF66.857360613509684
aF66.849043804806797
aF66.840750605647258
aF66.832481041910569
aF66.824235139419272
aF66.816012923938914
aF66.807814421178165
aF66.799639656788216
aF66.791488656362873
aF66.783361445438572
aF66.775258049493829
aF66.767178493949544
aF66.759122804168555
aF66.751091005455564
aF66.743083123057062
aF66.735099182161065
aF66.727139207897011
aF66.719203225335676
aF66.711291259488888
aF66.703403335309545
aF66.69553947769117
aF66.687699711468213
aF66.679884061415379
aF66.672092552247818
aF66.664325208620895
aF66.656582055129917
aF66.648863116310054
aF66.641168416636233
aF66.633497980522847
aF66.625851832323661
aF66.618229996331706
aF66.610632496778976
aF66.603059357836329
aF66.595510603613306
aF66.587986258158082
aF66.580486345457047
aF66.573010889434812
aF66.565559913954075
aF66.558133442815191
aF66.550731499756452
aF66.543354108453343
aF66.536001292518918
aF66.528673075503093
aF66.521369480893014
aF66.514090532112363
aF66.506836252521651
aF66.499606665417616
aF66.492401794033299
aF66.485221661537778
aF66.478066291036143
aF66.470935705568905
aF66.463829928112318
aF66.456748981577832
aF66.449692888812052
aF66.4426616725966
aF66.435655355647725
aF66.428673960616422
aF66.421717510087902
aF66.41478602658168
aF66.407879532551277
aF66.400998050384004
aF66.394141602400765
aF66.387310210855986
aF66.380503897937245
aF66.373722685765316
aF66.36696659639361
aF66.360235651808409
aF66.353529873928423
aF66.346849284604588
aF66.340193905619913
aF66.333563758689351
aF66.326958865459574
aF66.320379247508683
aF66.313824926346086
aF66.30729592341234
aF66.30079226007885
aF66.29431395764783
aF66.287861037351831
aF66.281433520353929
aF66.275031427747123
aF66.268654780554456
aF66.262303599728597
aF66.255977906151813
aF66.249677720635617
aF66.243403063920624
aF66.237153956676465
aF66.230930419501334
aF66.224732472922
aF66.218560137393638
aF66.212413433299361
aF66.206292380950302
aF66.200197000585234
aF66.194127312370441
aF66.188083336399558
aF66.182065092693179
aF66.176072601198982
aF66.170105881791116
aF66.164164954270404
aF66.15824983836383
aF66.15236055372452
aF66.146497119931411
aF66.140659556489126
aF66.134847882827827
aF66.129062118302784
aF66.123302282194487
aF66.117568393708211
aF66.111860471973827
aF66.106178536045746
aF66.100522604902537
aF66.09489269744688
aF66.089288832505275
aF66.083711028827736
aF66.078159305087837
aF66.072633679882372
aF66.06713417173107
aF66.061660799076563
aF66.056213580283952
aF66.050792533640958
aF66.0453976773573
aF66.040029029564806
aF66.034686608317116
aF66.029370431589399
aF66.024080517278222
aF66.018816883201396
aF66.013579547097734
aF66.008368526626711
aF66.003183839368504
aF65.998025502823637
aF65.992893534412758
aF65.987787951476619
aF65.982708771275611
aF65.977656010989847
aF65.972629687718623
aF65.967629818480646
aF65.962656420213378
aF65.957709509773252
aF65.952789103935118
aF65.947895219392294
aF65.943027872756275
aF65.93818708055656
aF65.933372859240322
aF65.928585225172412
aF65.923824194635131
aF65.919089783827829
aF65.914382008866937
aF65.909700885785711
aF65.905046430533986
aF65.900418658977941
aF65.895817586900122
aF65.891243229998992
aF65.886695603888853
aF65.882174724099642
aF65.87768060607678
aF65.873213265180894
aF65.868772716687744
aF65.864358975787908
aF65.859972057586589
aF65.855611977103607
aF65.851278749272964
aF65.84697238894293
aF65.842692910875442
aF65.838440329746476
aF65.834214660145264
aF65.830015916574666
aF65.825844113450501
aF65.821699265101756
aF65.817581385770069
aF65.813490489609791
aF65.809426590687707
aF65.805389702982865
aF65.801379840386289
aF65.797397016701041
aF65.793441245641759
aF65.789512540834721
aF65.785610915817472
aF65.781736384038823
aF65.777888958858469
aF65.774068653546976
aF65.770275481285623
aF65.766509455165988
aF65.762770588190094
aF65.759058893269966
aF65.755374383227647
aF65.751717070794882
aF65.748086968613052
aF65.744484089232998
aF65.740908445114769
aF65.737360048627409
aF65.733838912049066
aF65.730345047566459
aF65.726878467275
aF65.723439183178414
aF65.720027207188807
aF65.716642551126185
aF65.713285226718611
aF65.709955245601847
aF65.706652619319215
aF65.703377359321522
aF65.700129476966779
aF65.696908983520132
aF65.693715890153698
aF65.690550207946373
aF65.687411947883589
aF65.684301120857356
aF65.681217737665989
aF65.678161809013844
aF65.675133345511512
aF65.672132357675224
aF65.66915885592698
aF65.666212850594349
aF65.663294351910324
aF65.660403370013029
aF65.657539914945815
aF65.654703996656934
aF65.651895624999398
aF65.649114809731003
aF65.646361560513867
aF65.643635886914623
aF65.640937798404124
aF65.638267304357228
aF65.635624414052771
aF65.63300913667338
aF65.630421481305419
aF65.627861456938618
aF65.625329072466201
aF65.622824336684644
aF65.620347258293506
aF65.6178978458953
aF65.615476107995363
aF65.613082053001861
aF65.610715689225401
aF65.608377024879061
aF65.606066068078306
aF65.603782826840728
aF65.601527309085981
aF65.599299522635704
aF65.597099475213184
aF65.594927174443626
aF65.592782627853538
aF65.590665842871076
aF65.588576826825573
aF65.58651558694757
aF65.584482130368684
aF65.582476464121513
aF65.58049859513946
aF65.578548530256583
aF65.576626276207591
aF65.574731839627731
aF65.572865227052546
aF65.57102644491772
aF65.569215499559306
aF65.567432397213224
aF65.565677144015339
aF65.563949746001342
aF65.562250209106651
aF65.560578539166201
aF65.55893474191447
aF65.55731882298528
aF65.555730787911727
aF65.554170642126095
aF65.552638390959743
aF65.551134039642989
aF65.549657593304943
aF65.54820905697359
aF65.54678843557555
aF65.545395733935976
aF65.544030956778442
aF65.542694108725073
aF65.541385194296097
aF65.540104217910056
aF65.538851183883409
aF65.537626096430799
aF65.536428959664747
aF65.535259777595513
aF65.534118554131126
aF65.533005293077295
aF65.531919998137226
aF65.530862672911624
aF65.529833320898618
aF65.528831945493593
aF65.527858549989048
aF65.526913137574837
aF65.525995711337686
aF65.525106274261404
aF65.524244829226632
aF65.52341137901081
aF65.522605926288151
aF65.52182847362954
aF65.521079023502438
aF65.520357578270762
aF65.519664140194919
aF65.518998711431649
aF65.518361294034037
aF65.517751889951356
aF65.517170501028914
aF65.516617129008281
aF65.516091775526974
aF65.515594442118356
aF65.5151251302118
aF65.514683841132438
aF65.514270576101126
aF65.513885336234424
aF65.513528122544486
aF65.513198935939073
aF65.512897777221426
aF65.512624647090135
aF65.512379546139329
aF65.512162474858243
aF65.511973433631596
aF65.511812422739126
aF65.511679442355771
aF65.511574492551688
aF65.511497573291862
aF65.511448684436317
aF65.511427825740142
aF65.511434996853126
aF65.511470197319994
aF65.511533426580243
aF65.511624683967995
aF65.511743968712167
aF65.511891279936236
aF65.512066616658288
aF65.51226997779095
aF65.512501362141307
aF65.512760768410914
aF65.513048195195694
aF65.513363640986029
aF65.513707104166485
aF65.514078583015959
aF65.514478075707629
aF65.514905580308763
aF65.515361094780914
aF65.515844616979621
aF65.516356144654566
aF65.516895675449433
aF65.517463206901994
aF65.518058736443876
aF65.518682261400755
aF65.519333778992078
aF65.520013286331263
aF65.520720780425506
aF65.521456258175874
aF65.522219716377052
aF65.523011151717597
aF65.523830560779757
aF65.524677940039439
aF65.52555328586611
aF65.52645659452304
aF65.527387862166918
aF65.528347084848122
aF65.529334258510531
aF65.530349378991474
aF65.531392442021897
aF65.532463443226106
aF65.533562378121871
aF65.534689242120422
aF65.535844030526391
aF65.537026738537662
aF65.538237361245621
aF65.539475893634886
aF65.540742330583527
aF65.542036666862671
aF65.543358897137011
aF65.544709015964173
aF65.546087017795287
aF65.547492896974632
aF65.548926647739592
aF65.550388264220842
aF65.551877740442208
aF65.553395070320619
aF65.554940247666252
aF65.556513266182264
aF65.558114119465145
aF65.559742801004248
aF65.561399304182146
aF65.563083622274448
aF65.564795748449896
aF65.566535675770183
aF65.568303397190107
aF65.570098905557501
aF65.571922193613176
aF65.57377325399105
aF65.57565207921796
aF65.577558661713766
aF65.579492993791305
aF65.581455067656407
aF65.583444875407963
aF65.585462409037632
aF65.587507660430191
aF65.589580621363396
aF65.591681283507839
aF65.593809638427132
aF65.59596567757778
aF65.598149392309253
aF65.600360773864026
aF65.602599813377324
aF65.604866501877538
aF65.607160830285764
aF65.60948278941612
aF65.611832369975644
aF65.614209562564298
aF65.616614357674933
aF65.619046745693282
aF65.621506716898125
aF65.623994261461021
aF65.626509369446467
aF65.629052030811991
aF65.631622235407875
aF65.634219972977405
aF65.636845233156748
aF65.639498005475076
aF65.642178279354368
aF65.644886044109597
aF65.647621288948642
aF65.650384002972331
aF65.653174175174371
aF65.655991794441434
aF65.658836849553182
aF65.661709329182145
aF65.664609221893812
aF65.667536516146669
aF65.670491200292076
aF65.673473262574404
aF65.676482691131042
aF65.679519473992215
aF65.682583599081241
aF65.685675054214386
aF65.688793827100824
aF65.691939905342792
aF65.69511327643562
aF65.698313927767444
aF65.701541846619548
aF65.704797020166154
aF65.708079435474602
aF65.711389079505153
aF65.71472593911119
aF65.718090001039172
aF65.721481251928495
aF65.724899678311687
aF65.728345266614326
aF65.731818003155126
aF65.735317874145764
aF65.738844865691163
aF65.742398963789242
aF65.745980154331065
aF65.749588423100846
aF65.753223755775863
aF65.756886137926642
aF65.760575555016658
aF65.764291992402804
aF65.768035435334923
a(lp4
F-77.850108846098564
aF-77.792863227264803
aF-77.735601538164502
aF-77.678323693188503
aF-77.621029606678633
aF-77.563719192927678
aF-77.506392366179
aF-77.449049040626548
aF-77.391689130414605
aF-77.334312549637559
aF-77.276919212339848
aF-77.219509032515745
aF-77.162081924109174
aF-77.104637801013567
aF-77.047176577071767
aF-76.989698166075627
aF-76.932202481766154
aF-76.874689437833112
aF-76.817158947915004
aF-76.759610925598835
aF-76.702045284420009
aF-76.644461937862062
aF-76.586860799356671
aF-76.529241782283364
aF-76.471604799969384
aF-76.413949765689608
aF-76.356276592666276
aF-76.29858519406902
aF-76.240875483014477
aF-76.183147372566353
aF-76.125400775735159
aF-76.067635605478046
aF-76.009851774698703
aF-75.95204919624733
aF-75.894227782920169
aF-75.836387447459757
aF-75.778528102554461
aF-75.720649660838518
aF-75.662752034891881
aF-75.604835137239974
aF-75.546898880353638
aF-75.488943176649016
aF-75.430967938487356
aF-75.372973078174951
aF-75.314958507962857
aF-75.256924140046976
aF-75.198869886567763
aF-75.140795659610163
aF-75.082701371203441
aF-75.024586933321174
aF-74.966452257880903
aF-74.908297256744277
aF-74.8501218417167
aF-74.7919259245474
aF-74.733709416929116
aF-74.675472230498229
aF-74.61721427683436
aF-74.558935467460429
aF-74.50063571384257
aF-74.44231492738993
aF-74.383973019454544
aF-74.325609901331305
aF-74.26722548425785
aF-74.208819679414404
aF-74.150392397923611
aF-74.091943550850644
aF-74.033473049202911
aF-73.974980803930009
aF-73.916466725923669
aF-73.857930726017614
aF-73.799372714987427
aF-73.740792603550631
aF-73.682190302366337
aF-73.623565722035323
aF-73.564918773099976
aF-73.506249366044088
aF-73.447557411292777
aF-73.388842819212542
aF-73.330105500111017
aF-73.271345364237007
aF-73.212562321780325
aF-73.153756282871782
aF-73.094927157583029
aF-73.036074855926643
aF-72.977199287855811
aF-72.918300363264521
aF-72.859377991987273
aF-72.800432083799194
aF-72.741462548415768
aF-72.682469295493078
aF-72.62345223462745
aF-72.564411275355425
aF-72.505346327153916
aF-72.44625729944002
aF-72.38714410157084
aF-72.328006642843661
aF-72.268844832495788
aF-72.209658579704481
aF-72.150447793586906
aF-72.091212383200187
aF-72.031952257541207
aF-71.972667325546794
aF-71.913357496093354
aF-71.854022677997222
aF-71.79466278001432
aF-71.735277710840251
aF-71.675867379110258
aF-71.61643169339925
aF-71.556970562221622
aF-71.497483894031433
aF-71.437971597222187
aF-71.378433580126966
aF-71.318869751018312
aF-71.259280018108356
aF-71.199664289548565
aF-71.140022473429937
aF-71.080354477782947
aF-71.020660210577446
aF-70.960939579722805
aF-70.901192493067754
aF-70.841418858400516
aF-70.781618583448804
aF-70.721791575879635
aF-70.661937743299575
aF-70.602056993254692
aF-70.542149233230447
aF-70.482214370651789
aF-70.422252312883217
aF-70.362262967228688
aF-70.302246240931808
aF-70.242202041175574
aF-70.182130275082784
aF-70.122030849715657
aF-70.061903672076141
aF-70.001748649105821
aF-69.941565687686094
aF-69.881354694637992
aF-69.821115576722448
aF-69.76084824064003
aF-69.700552593031418
aF-69.64022854047704
aF-69.579875989497339
aF-69.519494846552789
aF-69.459085018043936
aF-69.398646410311414
aF-69.338178929636186
aF-69.277682482239271
aF-69.217156974282119
aF-69.156602311866536
aF-69.096018401034783
aF-69.035405147769652
aF-68.974762457994473
aF-68.914090237573319
aF-68.853388392310933
aF-68.792656827953039
aF-68.731895450186101
aF-68.671104164637669
aF-68.610282876876454
aF-68.549431492412225
aF-68.488549916696115
aF-68.427638055120624
aF-68.366695813019732
aF-68.305723095668938
aF-68.244719808285581
aF-68.183685856028617
aF-68.122621143999041
aF-68.061525577239848
aF-68.000399060736058
aF-67.939241499415161
aF-67.878052798146854
aF-67.816832861743407
aF-67.755581594959708
aF-67.694298902493401
aF-67.632984688985005
aF-67.571638859018194
aF-67.510261317119628
aF-67.448851967759481
aF-67.387410715351209
aF-67.325937464251879
aF-67.264432118762556
aF-67.202894583127929
aF-67.141324761536865
aF-67.079722558122441
aF-67.018087876962142
aF-66.956420622077971
aF-66.894720697436725
aF-66.832988006949904
aF-66.771222454474326
aF-66.709423943811828
aF-66.647592378709746
aF-66.585727662861061
aF-66.523829699904425
aF-66.461898393424534
aF-66.399933646952235
aF-66.337935363964789
aF-66.275903447885824
aF-66.213837802085962
aF-66.151738329882619
aF-66.089604934540404
aF-66.027437519271274
aF-65.965235987234848
aF-65.90300024153845
aF-65.84073018523749
aF-65.778425721335566
aF-65.716086752784747
aF-65.653713182485802
aF-65.591304913288383
aF-65.528861847991294
aF-65.466383889342779
aF-65.403870940040619
aF-65.341322902732543
aF-65.2787396800164
aF-65.216121174440303
aF-65.153467288502995
aF-65.090777924654219
aF-65.028052985294664
aF-64.965292372776517
aF-64.902495989403619
aF-64.83966373743165
aF-64.776795519068529
aF-64.713891236474666
aF-64.65095079176308
aF-64.587974087000021
aF-64.524961024204828
aF-64.461911505350528
aF-64.398825432364063
aF-64.335702707126401
aF-64.272543231473136
aF-64.209346907194544
aF-64.146113636035935
aF-64.082843319698071
aF-64.019535859837319
aF-63.956191158066076
aF-63.892809115953007
aF-63.829389635023439
aF-63.765932616759649
aF-63.702437962601117
aF-63.638905573944967
aF-63.575335352146269
aF-63.511727198518329
aF-63.448081014332999
aF-63.384396700821149
aF-63.320674159172832
aF-63.256913290537923
aF-63.193113996026
aF-63.129276176707215
aF-63.065399733612274
aF-63.001484567733009
aF-62.937530580022518
aF-62.873537671395894
aF-62.809505742730138
aF-62.745434694865068
aF-62.68132442860297
aF-62.617174844709943
aF-62.552985843915266
aF-62.488757326912442
aF-62.424489194359495
aF-62.360181346879173
aF-62.295833685059463
aF-62.231446109453969
aF-62.167018520582303
aF-62.102550818930517
aF-62.038042904951496
aF-61.973494679065389
aF-61.908906041659982
aF-61.844276893091127
aF-61.779607133683214
aF-61.714896663729547
aF-61.650145383492791
aF-61.585353193205293
aF-61.520519993069847
aF-61.455645683259647
aF-61.390730163919194
aF-61.325773335164364
aF-61.260775097083126
aF-61.195735349735877
aF-61.13065399315591
aF-61.065530927349812
aF-61.000366052298084
aF-60.935159267955363
aF-60.869910474251242
aF-60.804619571090235
aF-60.739286458352836
aF-60.673911035895536
aF-60.608493203551483
aF-60.543032861130975
aF-60.477529908422007
aF-60.411984245190389
aF-60.346395771180909
aF-60.280764386117212
aF-60.215089989702591
aF-60.149372481620425
aF-60.083611761534698
aF-60.017807729090507
aF-59.951960283914481
aF-59.886069325615502
aF-59.820134753785091
aF-59.75415646799788
aF-59.688134367812253
aF-59.622068352770761
aF-59.555958322400748
aF-59.489804176214854
aF-59.423605813711518
aF-59.357363134375611
aF-59.291076037678835
aF-59.224744423080409
aF-59.158368190027552
aF-59.091947237955978
aF-59.025481466290579
aF-58.958970774445952
aF-58.892415061826874
aF-58.825814227828914
aF-58.759168171839036
aF-58.692476793236253
aF-58.62573999139186
aF-58.558957665670476
aF-58.492129715430195
aF-58.425256040023619
aF-58.358336538797928
aF-58.291371111095899
aF-58.224359656256304
aF-58.157302073614488
aF-58.090198262503115
aF-58.023048122252511
aF-57.95585155219171
aF-57.888608451648459
aF-57.821318719950355
aF-57.753982256425218
aF-57.686598960401639
aF-57.619168731209896
aF-57.55169146818217
aF-57.484167070653598
aF-57.416595437962492
aF-57.348976469451316
aF-57.2813100644671
aF-57.213596122362155
aF-57.14583454249464
aF-57.078025224229428
aF-57.010168066938455
aF-56.942262970001572
aF-56.874309832807079
aF-56.806308554752484
aF-56.738259035244987
aF-56.670161173702454
aF-56.60201486955372
aF-56.533820022239425
aF-56.465576531212832
aF-56.397284295940096
aF-56.328943215901376
aF-56.260553190591196
aF-56.192114119519296
aF-56.123625902211202
aF-56.055088438209083
aF-55.986501627072137
aF-55.91786536837764
aF-55.849179561721357
aF-55.780444106718399
aF-55.711658903003759
aF-55.642823850233228
aF-55.573938848083884
aF-55.505003796254954
aF-55.436018594468472
aF-55.366983142469898
aF-55.297897340028968
aF-55.228761086940359
aF-55.159574283024376
aF-55.090336828127654
aF-55.021048622123921
aF-54.951709564914808
aF-54.882319556430353
aF-54.812878496629999
aF-54.743386285503043
aF-54.67384282306962
aF-54.604248009381315
aF-54.534601744521893
aF-54.464903928608074
aF-54.395154461790256
aF-54.32535324425325
aF-54.255500176217133
aF-54.185595157937911
aF-54.115638089708092
aF-54.045628871857851
aF-53.975567404755424
aF-53.905453588808051
aF-53.835287324462556
aF-53.76506851220649
aF-53.694797052568404
aF-53.624472846118962
aF-53.554095793471603
aF-53.483665795283251
aF-53.413182752255175
aF-53.342646565133734
aF-53.272057134711154
aF-53.201414361826316
aF-53.130718147365513
aF-53.059968392263286
aF-52.98916499750311
aF-52.918307864118248
aF-52.84739689319246
aF-52.776431985861038
aF-52.705413043311339
aF-52.634339966783514
aF-52.56321265757164
aF-52.492031017024267
aF-52.420794946545222
aF-52.349504347594504
aF-52.278159121689022
aF-52.206759170403458
aF-52.135304395371023
aF-52.063794698284141
aF-51.99222998089563
aF-51.92061014501909
aF-51.848935092529899
aF-51.777204725366005
aF-51.705418945528926
aF-51.633577655084189
aF-51.561680756162446
aF-51.489728150960225
aF-51.417719741740655
aF-51.345655430834327
aF-51.273535120640261
aF-51.201358713626476
aF-51.129126112331065
aF-51.056837219362826
aF-50.984491937402154
aF-50.912090169201932
aF-50.839631817588383
aF-50.767116785461603
aF-50.69454497579683
aF-50.621916291644979
aF-50.549230636133537
aF-50.476487912467476
aF-50.403688023930009
aF-50.330830873883457
aF-50.257916365770072
aF-50.184944403112873
aF-50.111914889516449
aF-50.038827728667961
aF-49.96568282433779
aF-49.892480080380494
aF-49.819219400735598
aF-49.74590068942836
aF-49.672523850570862
aF-49.599088788362621
aF-49.525595407091508
aF-49.452043611134584
aF-49.378433304959032
aF-49.304764393122774
aF-49.231036780275701
aF-49.157250371160089
aF-49.083405070611782
aF-49.009500783560874
aF-48.935537415032613
aF-48.861514870148106
aF-48.787433054125508
aF-48.713291872280507
aF-48.639091230027368
aF-48.564831032879809
aF-48.490511186451677
aF-48.41613159645803
aF-48.341692168715731
aF-48.267192809144511
aF-48.192633423767795
aF-48.118013918713423
aF-48.043334200214552
aF-47.968594174610686
aF-47.893793748348187
aF-47.818932827981492
aF-47.744011320173648
aF-47.669029131697421
aF-47.593986169436022
aF-47.518882340383804
aF-47.443717551647495
aF-47.368491710446754
aF-47.293204724115029
aF-47.217856500100503
aF-47.142446945966995
aF-47.066975969394612
aF-46.991443478180777
aF-46.915849380241049
aF-46.84019358360986
aF-46.764475996441455
aF-46.688696527010784
aF-46.612855083714209
aF-46.536951575070432
aF-46.460985909721416
aF-46.384957996432988
aF-46.308867744095991
aF-46.232715061726942
aF-46.156499858468798
aF-46.080222043592066
aF-46.003881526495377
aF-45.927478216706447
aF-45.851012023882944
aF-45.774482857813183
aF-45.697890628417191
aF-45.621235245747272
aF-45.544516619989103
aF-45.467734661462309
aF-45.390889280621543
aF-45.313980388057168
aF-45.237007894496067
aF-45.159971710802616
aF-45.082871747979326
aF-45.005707917167811
aF-44.928480129649593
aF-44.851188296846793
aF-44.773832330323174
aF-44.696412141784677
aF-44.618927643080653
aF-44.541378746204174
aF-44.463765363293234
aF-44.386087406631447
aF-44.308344788648753
aF-44.230537421922385
aF-44.152665219177592
aF-44.074728093288527
aF-43.996725957278876
aF-43.918658724322825
aF-43.840526307745932
aF-43.76232862102561
aF-43.684065577792239
aF-43.60573709182988
aF-43.527343077076907
aF-43.448883447627018
aF-43.37035811772995
aF-43.291767001792209
aF-43.213110014377897
aF-43.134387070209492
aF-43.055598084168686
aF-42.976742971297057
aF-42.897821646796928
aF-42.818834026032057
aF-42.739780024528599
aF-42.660659557975599
aF-42.581472542226017
aF-42.502218893297261
aF-42.422898527372183
aF-42.34351136079971
aF-42.264057310095524
aF-42.184536291943033
aF-42.104948223193936
aF-42.025293020869086
aF-41.945570602159037
aF-41.86578088442517
aF-41.785923785200076
aF-41.705999222188446
aF-41.626007113267754
aF-41.54594737648911
aF-41.465819930077821
aF-41.38562469243432
aF-41.305361582134566
aF-41.225030517931202
aF-41.144631418753896
aF-41.064164203710313
aF-40.983628792086655
aF-40.903025103348419
aF-40.822353057141228
aF-40.741612573291327
aF-40.660803571806433
aF-40.579925972876431
aF-40.498979696873938
aF-40.41796466435509
aF-40.336880796060321
aF-40.255728012914851
aF-40.174506236029572
aF-40.093215386701395
aF-40.011855386414432
aF-39.930426156840149
aF-39.848927619838442
aF-39.767359697458069
aF-39.685722311937205
aF-39.604015385704592
aF-39.52223884137954
aF-39.440392601773112
aF-39.358476589888511
aF-39.276490728921665
aF-39.194434942262113
aF-39.112309153493406
aF-39.03011328639387
aF-38.947847264937238
aF-38.865511013293073
aF-38.783104455827718
aF-38.700627517104721
aF-38.618080121885413
aF-38.535462195129519
aF-38.452773661995927
aF-38.370014447843204
aF-38.287184478229953
aF-38.204283678915886
aF-38.12131197586195
aF-38.038269295231238
aF-37.955155563389361
aF-37.871970706905138
aF-37.788714652551135
aF-37.705387327304251
aF-37.621988658346176
aF-37.538518573064273
aF-37.454976999051581
aF-37.37136386410797
aF-37.287679096240289
aF-37.203922623662947
aF-37.120094374798747
aF-37.03619427827909
aF-36.952222262944538
aF-36.868178257845614
aF-36.784062192243049
aF-36.699873995608385
aF-36.615613597624481
aF-36.531280928186092
aF-36.446875917400341
aF-36.362398495587115
aF-36.277848593279657
aF-36.193226141225075
aF-36.108531070384892
aF-36.023763311935348
aF-35.938922797267864
aF-35.854009457989818
aF-35.769023225924741
aF-35.683964033112822
aF-35.598831811811479
aF-35.513626494495703
aF-35.428348013858503
aF-35.342996302811592
aF-35.257571294485338
aF-35.172072922229809
aF-35.086501119614688
aF-35.00085582043004
aF-34.915136958686617
aF-34.829344468616092
aF-34.743478284671973
aF-34.657538341529424
aF-34.571524574086069
aF-34.485436917462224
aF-34.399275307001403
aF-34.313039678270648
aF-34.226729967060862
aF-34.140346109387316
aF-34.05388804148982
aF-33.967355699833497
aF-33.880749021108649
aF-33.794067942231514
aF-33.707312400344414
aF-33.620482332816266
aF-33.53357767724269
aF-33.446598371446747
aF-33.359544353478789
aF-33.272415561617301
aF-33.185211934368809
aF-33.097933410468443
aF-33.010579928880247
aF-32.923151428797446
aF-32.835647849642761
aF-32.748069131068725
aF-32.660415212958071
aF-32.572686035423885
aF-32.484881538809965
aF-32.397001663691192
aF-32.309046350873757
aF-32.221015541395381
aF-32.132909176525786
aF-32.044727197766669
aF-31.956469546852201
aF-31.868136165749352
aF-31.77972699665791
aF-31.691241982010908
aF-31.602681064474872
aF-31.514044186949967
aF-31.425331292570352
aF-31.3365423247044
aF-31.247677226954842
aF-31.15873594315908
aF-31.06971841738952
aF-30.980624593953578
aF-30.891454417393877
aF-30.802207832488907
aF-30.712884784252534
aF-30.623485217934935
aF-30.534009079022152
aF-30.444456313236827
aF-30.354826866537998
aF-30.265120685121548
aF-30.175337715420255
aF-30.085477904104081
aF-29.995541198080073
aF-29.905527544493044
aF-29.815436890725234
aF-29.725269184396812
aF-29.635024373365752
aF-29.544702405728444
aF-29.454303229819335
aF-29.363826794211324
aF-29.273273047716028
aF-29.182641939383721
aF-29.091933418503494
aF-29.001147434603617
aF-28.910283937451386
aF-28.819342877053348
aF-28.728324203655525
aF-28.637227867743476
aF-28.546053820042424
aF-28.45480201151722
aF-28.363472393372945
aF-28.272064917054159
aF-28.180579534245947
aF-28.089016196873526
aF-27.997374857102209
aF-27.905655467338043
aF-27.813857980227326
aF-27.721982348657022
aF-27.63002852575487
aF-27.537996464889272
aF-27.445886119669577
aF-27.353697443946047
aF-27.261430391809959
aF-27.169084917593718
aF-27.076660975870851
aF-26.984158521456177
aF-26.891577509405892
aF-26.798917895017389
aF-26.706179633829692
aF-26.613362681623254
aF-26.520466994420104
aF-26.427492528483981
aF-26.334439240320197
aF-26.241307086675789
aF-26.148096024539761
aF-26.054806011142816
aF-25.961437003957588
aF-25.867988960698568
aF-25.774461839322377
aF-25.680855598027588
aF-25.587170195254881
aF-25.493405589686983
aF-25.399561740248767
aF-25.305638606107443
aF-25.211636146672227
aF-25.117554321594824
aF-25.023393090769016
aF-24.929152414331053
aF-24.834832252659556
aF-24.740432566375446
aF-24.645953316342133
aF-24.551394463665446
aF-24.456755969693766
aF-24.362037796017919
aF-24.267239904471257
aF-24.172362257129802
aF-24.077404816312011
aF-23.98236754457923
aF-23.887250404735081
aF-23.792053359826241
aF-23.696776373141855
aF-23.601419408213925
aF-23.505982428817074
aF-23.410465398968892
aF-23.314868282929645
aF-23.219191045202496
aF-23.12343365053351
aF-23.027596063911577
aF-22.931678250568677
aF-22.835680175979533
aF-22.739601805862051
aF-22.643443106177042
aF-22.547204043128477
aF-22.450884583163383
aF-22.354484692971873
aF-22.258004339487368
aF-22.161443489886313
aF-22.064802111588595
aF-21.968080172257256
aF-21.87127763979872
aF-21.774394482362808
aF-21.677430668342758
aF-21.580386166375344
aF-21.483260945340731
aF-21.386054974362796
aF-21.288768222809061
aF-21.191400660290604
aF-21.093952256662483
aF-20.996422982023407
aF-20.898812806715949
aF-20.801121701326839
aF-20.703349636686688
aF-20.605496583870202
aF-20.507562514196387
aF-20.40954739922833
aF-20.311451210773651
aF-20.213273920884294
aF-20.115015501856799
aF-20.016675926232232
aF-19.918255166796524
aF-19.819753196580219
aF-19.721169988859021
aF-19.622505517153542
aF-19.523759755229559
aF-19.424932677098081
aF-19.326024257015664
aF-19.227034469484195
aF-19.127963289251365
aF-19.028810691310571
aF-18.929576650901154
aF-18.830261143508526
aF-18.730864144864391
aF-18.631385630946749
aF-18.531825577980197
aF-18.432183962436024
aF-18.332460761032454
aF-18.232655950734731
aF-18.132769508755292
aF-18.032801412554107
aF-17.932751639838738
aF-17.832620168564524
aF-17.732406976934953
aF-17.632112043401658
aF-17.531735346664821
aF-17.431276865673194
aF-17.330736579624656
aF-17.230114467966057
aF-17.129410510393768
aF-17.028624686853842
aF-16.927756977542074
aF-16.826807362904724
aF-16.725775823638273
aF-16.624662340690119
aF-16.523466895258583
aF-16.422189468793363
aF-16.320830042995738
aF-16.219388599818956
aF-16.117865121468586
aF-16.016259590402662
aF-15.914571989332208
aF-15.812802301221584
aF-15.710950509288541
aF-15.609016597005086
aF-15.507000548097366
aF-15.404902346546283
aF-15.302721976587874
aF-15.200459422713626
aF-15.098114669671064
aF-14.995687702463806
aF-14.893178506352367
aF-14.790587066854325
aF-14.687913369744862
aF-14.585157401057307
aF-14.482319147083382
aF-14.379398594373788
aF-14.276395729738738
aF-14.173310540248366
aF-14.070143013233135
aF-13.966893136284616
aF-13.863560897255669
aF-13.760146284261291
aF-13.65664928567881
aF-13.553069890148814
aF-13.449408086575378
aF-13.345663864126827
aF-13.241837212236256
aF-13.137928120602117
aF-13.033936579188783
aF-12.929862578227262
aF-12.82570610821571
aF-12.721467159920154
aF-12.617145724375069
aF-12.512741792884047
aF-12.408255357020494
aF-12.303686408628307
aF-12.199034939822523
aF-12.094300942990053
aF-11.989484410790451
aF-11.884585336156478
aF-11.779603712294975
aF-11.67453953268763
aF-11.569392791091612
aF-11.464163481540512
aF-11.358851598344955
aF-11.253457136093482
aF-11.147980089653398
aF-11.042420454171522
aF-10.936778225075138
aF-10.831053398072633
aF-10.725245969154516
aF-10.619355934594344
aF-10.513383290949363
aF-10.407328035061754
aF-10.301190164059243
aF-10.194969675356129
aF-10.088666566654243
aF-9.9822808359438895
aF-9.87581248150485
aF-9.7692615019072022
aF-9.6626278960125553
aF-9.5559116629747933
aF-9.4491128022413076
aF-9.342231313553869
aF-9.2352671969497742
aF-9.1282204527628696
aF-9.0210910816245686
aF-8.9138790844649822
aF-8.8065844625141096
aF-8.6992072173027459
aF-8.5917473506637201
aF-8.4842048647331296
aF-8.3765797619512448
aF-8.2688720450639259
aF-8.1610817171236363
aF-8.0532087814906745
aF-7.9452532418345037
aF-7.8372151021347527
aF-7.7290943666825962
aF-7.6208910400819967
aF-7.5126051272508914
aF-7.4042366334225678
aF-7.2957855641468949
aF-7.1872519252915978
aF-7.0786357230436092
aF-6.9699369639103992
aF-6.8611556547214301
aF-6.7522918026292835
aF-6.6433454151111784
aF-6.5343164999703873
aF-6.425205065337539
aF-6.3160111196721571
aF-6.2067346717638898
aF-6.097375730734278
aF-5.9879343060378032
aF-5.8784104074636643
aF-5.7688040451371778
aF-5.6591152295212321
aF-5.5493439714178701
aF-5.4394902819697437
aF-5.3295541726616413
aF-5.2195356553222192
aF-5.109434742125301
aF-4.999251445591657
aF-4.8889857785905573
aF-4.7786377543412817
aF-4.6682073864148883
aF-4.5576946887357082
aF-4.4470996755831482
aF-4.3364223615932023
aF-4.2256627617602032
aF-4.1148208914384945
aF-4.0038967663441216
aF-3.8928904025566324
aF-3.7818018165206593
aF-3.6706310250477352
aF-3.5593780453180934
aF-3.4480428948823345
aF-3.3366255916632825
aF-3.2251261539577651
aF-3.1135446004383613
aF-3.0018809501553183
aF-2.8901352225382153
aF-2.7783074373980776
aF-2.666397614928925
aF-2.554405775709808
aF-2.4423319407067354
aF-2.3301761312744085
aF-2.2179383691582051
aF-2.1056186764961136
aF-1.9932170758205867
aF-1.8807335900606195
aF-1.7681682425435143
aF-1.655521056996957
aF-1.5427920575509342
aF-1.4299812687397793
aF-1.3170887155041207
aF-1.2041144231928576
aF-1.09105841756522
aF-0.97792072479278069
aF-0.86470137146145265
aF-0.75140038457365155
aF-0.63801779155016813
aF-0.52455362023239094
aF-0.41100789888427303
aF-0.29738065619447124
aF-0.18367192127849613
aF-0.069881723680643965
aF0.043989906623666669
aF0.15794293922606473
aF0.271977343282787
aF0.38609308751273641
aF0.5002901401953096
aF0.61456846916814456
aF0.72892804182510007
aF0.84336882511403999
aF0.95789078553456941
aF1.072493889135955
aF1.1871781015148746
aF1.30194338781327
aF1.4167897127160867
aF1.5317170404491045
aF1.6467253347767492
aF1.7618145589996916
aF1.8769846759528734
aF1.9922356480031131
aF2.107567437046888
aF2.2229800045081478
aF2.3384733113359211
aF2.4540473180022384
aF2.5697019844997633
aF2.6854372703395759
aF2.8012531345488556
aF2.9171495356686203
aF3.0331264317515325
aF3.1491837803594946
aF3.2653215385614254
aF3.3815396629310963
aF3.497838109544547
aF3.6142168339781171
aF3.7306757913059712
aF3.8472149360978509
aF3.9638342224167618
aF4.0805336038167459
aF4.1973130333405191
aF4.3141724635172309
aF4.4311118463600385
aF4.5481311333640075
aF4.6652302755036885
aF4.7824092232308395
aF4.8996679264721923
aF5.01700633462701
aF5.1344243965650227
aF5.2519220606239507
aF5.3694992746072785
aF5.4871559857820289
aF5.6048921408763768
aF5.7227076860774782
aF5.8406025670290624
aF5.9585767288293825
aF6.0766301160287366
aF6.194762672627232
aF6.3129743420726756
aF6.4312650672581988
aF6.5496347905199963
aF6.668083453635278
aF6.7866109978197153
aF6.9052173637255532
aF7.0239024914390926
aF7.1426663204787477
aF7.2615087897926296
aF7.3804298377565161
aF7.4994294021715184
aF7.6185074202619978
aF7.737663828673365
aF7.8568985634699633
aF7.9762115601328665
aF8.0956027535577437
aF8.2150720780527546
aF8.3346194673364327
aF8.4542448545355757
aF8.573948172183167
aF8.6937293522162804
aF8.8135883259739547
aF8.9335250241952373
aF9.0535393770171417
aF9.1736313139725389
aF9.2938007639882141
aF9.4140476553827721
aF9.5343719158647602
aF9.6547734725307777
aF9.7752522518632308
aF9.8958081797286823
aF10.016441181375846
aF10.137151181433564
aF10.257938103909174
aF10.37880187218637
aF10.499742409023584
aF10.620759636551997
aF10.7418534762738
aF10.863023849060456
aF10.98427067515075
aF11.105593874149287
aF11.226993365024597
aF11.348469066107452
aF11.470020895089261
aF11.591648769020265
aF11.713352604308053
aF11.835132316715885
aF11.956987821361031
aF12.078919032713351
aF12.200925864593536
aF12.32300823017188
aF12.445166041966473
aF12.567399211842037
aF12.689707651008254
aF12.812091270018373
aF12.934549978768015
aF13.057083686493579
aF13.179692301770991
aF13.302375732514621
aF13.425133885975532
aF13.547966668740726
aF13.670873986731589
aF13.793855745202883
aF13.916911848741551
aF14.040042201265559
aF14.163246706022873
aF14.286525265590251
aF14.409877781872424
aF14.533304156100979
aF14.65680428883339
aF14.78037807995215
aF14.904025428663738
aF15.027746233498055
aF15.151540392307247
aF15.275407802265175
aF15.399348359866547
aF15.523361960926193
aF15.647448500578474
aF15.771607873276592
aF15.895839972791855
aF16.020144692213528
aF16.144521923947625
aF16.268971559717126
aF16.393493490561102
aF16.518087606834364
aF16.64275379820727
aF16.767491953665164
aF16.892301961508295
aF17.017183709351411
aF17.142137084123668
aF17.267161972068386
aF17.392258258742991
aF17.517425829018965
aF17.642664567081699
aF17.767974356430642
aF17.893355079879196
aF18.018806619555082
aF18.144328856900149
aF18.269921672670868
aF18.39558494693831
aF18.521318559088702
aF18.64712238782359
aF18.772996311160192
aF18.898940206431984
aF19.024953950288939
aF19.151037418698333
aF19.277190486945052
aF19.403413029632425
aF19.529704920682818
aF19.656066033338238
aF19.782496240161283
aF19.908995413035882
aF20.035563423168135
aF20.162200141087347
aF20.288905436646942
aF20.41567917902535
aF20.542521236727357
aF20.669431477584983
aF20.796409768759016
aF20.923455976739625
aF21.050569967348441
aF21.177751605739303
aF21.30500075639992
aF21.43231728315325
aF21.559701049159035
aF21.687151916915397
aF21.814669748260346
aF21.942254404373632
aF22.069905745778311
aF22.197623632342701
aF22.325407923282018
aF22.453258477160432
aF22.581175151892968
aF22.709157804747708
aF22.837206292347375
aF22.965320470672122
aF23.0935001950612
aF23.221745320215469
aF23.350055700199622
aF23.478431188444539
aF23.606871637749791
aF23.735376900286099
aF23.863946827597758
aF23.992581270605463
aF24.12128007960872
aF24.250043104288814
aF24.378870193711414
aF24.507761196329547
aF24.636715959986439
aF24.765734331918399
aF24.894816158758037
aF25.023961286537215
aF25.153169560690269
aF25.282440826057091
aF25.411774926886633
aF25.541171706840082
aF25.670631008994128
aF25.800152675844863
aF25.929736549310743
aF26.059382470736708
aF26.189090280897314
aF26.318859820000885
aF26.44869092769299
aF26.578583443060506
aF26.708537204635185
aF26.838552050398071
aF26.968627817783151
aF27.098764343681392
aF27.22896146444538
aF27.35921901589299
aF27.48953683331187
aF27.619914751463895
aF27.75035260458931
aF27.880850226411379
aF28.011407450140933
aF28.14202410848084
aF28.272700033630631
aF28.403435057291262
aF28.534229010670121
aF28.66508172448539
aF28.795993028971321
aF28.926962753883043
aF29.057990728501768
aF29.189076781639475
aF29.320220741644548
aF29.451422436406652
aF29.582681693362144
aF29.713998339499405
aF29.845372201364189
aF29.976803105065052
aF30.108290876279067
aF30.239835340257127
aF30.371436321829801
aF30.503093645413067
aF30.634807135013691
aF30.766576614235674
aF30.898401906285589
aF31.030282833978902
aF31.16221921974563
aF31.29421088563689
aF31.426257653330399
aF31.558359344137347
aF31.690515779008035
aF31.822726778538637
aF31.954992162977224
aF32.087311752230441
aF32.219685365869893
aF32.352112823138569
aF32.484593942957716
aF32.617128543933134
aF32.749716444362242
aF32.882357462240535
aF33.015051415268672
aF33.147798120859264
aF33.280597396143698
aF33.413449057979221
aF33.546352922955947
aF33.679308807404134
aF33.812316527401201
aF33.945375898778714
aF34.078486737130127
aF34.211648857817693
aF34.344862075980032
aF34.47812620653945
aF34.611441064209721
aF34.744806463502961
aF34.878222218737875
aF35.011688144047056
aF35.14520405338471
aF35.278769760534317
aF35.412385079116703
aF35.546049822597212
aF35.679763804294453
aF35.813526837387585
aF35.947338734924394
aF36.081199309829529
aF36.215108374912319
aF36.349065742875119
aF36.483071226321066
aF36.617124637762721
aF36.751225789630105
aF36.885374494278935
aF37.01957056399899
aF37.153813811022609
aF37.288104047532784
aF37.42244108567207
aF37.556824737550613
aF37.691254815254979
aF37.82573113085661
aF37.96025349642052
aF38.09482172401372
aF38.229435625714203
aF38.364095013619576
aF38.498799699855525
aF38.633549496585097
aF38.768344216017184
aF38.903183670415366
aF39.038067672107211
aF39.172996033492566
aF39.307968567053301
aF39.442985085361208
aF39.57804540108836
aF39.713149327015152
aF39.848296676039702
aF39.98348726118715
aF40.118720895618367
aF40.253997392639555
aF40.389316565711319
aF40.524678228457617
aF40.660082194675383
aF40.795528278343568
aF40.931016293632382
aF41.066546054912891
aF41.202117376766132
aF41.337730073992269
aF41.47338396162057
aF41.609078854918117
aF41.744814569399807
aF41.880590920837257
aF42.016407725268721
aF42.152264799008314
aF42.288161958655387
aF42.424099021104247
aF42.56007580355368
aF42.696092123516287
aF42.832147798828061
aF42.968242647658016
aF43.104376488517808
aF43.240549140271071
aF43.376760422143164
aF43.513010153730662
aF43.649298155011117
aF43.785624246352462
aF43.921988248522673
aF44.058389982699453
aF44.194829270479666
aF44.331305933889247
aF44.467819795392366
aF44.604370677901564
aF44.740958404787122
aF44.877582799886483
aF45.014243687514046
aF45.150940892471091
aF45.287674240054734
aF45.424443556068248
aF45.561248666829968
aF45.698089399183381
aF45.834965580506648
aF45.971877038721836
aF46.108823602304938
aF46.245805100295115
aF46.382821362304476
aF46.519872218527446
aF46.656957499750504
aF46.794077037361284
aF46.931230663358562
aF47.068418210361472
aF47.205639511618969
aF47.342894401019379
aF47.480182713099964
aF47.617504283055737
aF47.754858946749863
aF47.892246540721949
aF48.029666902198272
aF48.167119869100787
aF48.304605280055966
aF48.442122974404946
aF48.579672792212307
aF48.717254574275344
aF48.854868162133378
aF48.992513398076589
aF49.130190125155785
aF49.26789818719103
aF49.405637428780956
aF49.543407695311863
aF49.681208832966377
aF49.81904068873294
aF49.956903110414594
aF50.094795946637767
aF50.232719046861327
aF50.370672261385423
aF50.508655441360212
aF50.646668438794684
aF50.784711106565567
aF50.922783298425728
aF51.060884869013087
aF51.199015673859137
aF51.337175569397388
aF51.475364412972311
aF51.61358206284725
aF51.751828378213496
aF51.890103219198011
aF52.028406446872403
aF52.166737923260783
aF52.30509751134835
aF52.443485075089335
aF52.581900479415189
aF52.720343590242933
aF52.858814274482889
aF52.997312400046965
aF53.135837835856321
aF53.27439045184942
aF53.412970118989904
aF53.551576709274194
aF53.690210095739552
aF53.828870152471247
aF53.967556754610619
aF54.106269778362368
aF54.245009101002132
aF54.383774600883982
aF54.522566157447514
aF54.661383651225357
aF54.800226963850577
aF54.939095978063676
aF55.077990577719397
aF55.216910647794215
aF55.35585607439328
aF55.494826744757034
aF55.633822547268338
aF55.77284337145926
aF55.911889108017235
aF56.050959648792556
aF56.190054886804262
aF56.32917471624701
aF56.468319032497419
aF56.607487732120049
aF56.746680712874259
aF56.885897873720189
aF57.025139114824633
aF57.16440433756744
aF57.303693444547228
aF57.443006339587498
aF57.582342927742339
aF57.721703115302191
aF57.861086809799311
aF58.00049392001398
aF58.139924355979119
aF58.279378028986407
aF58.418854851591334
aF58.558354737618593
aF58.697877602167047
aF58.837423361615045
aF58.976991933625349
aF59.116583237149982
aF59.256197192435216
aF59.395833721026293
aF59.535492745771968
aF59.675174190829239
aF59.81487798166782
aF59.954604045074554
aF60.094352309157486
aF60.234122703350579
aF60.373915158417539
aF60.51372960645589
aF60.653565980900929
aF60.793424216529758
aF60.933304249464825
aF61.073206017177974
aF61.21312945849359
aF61.353074513592468
aF61.493041124014866
aF61.633029232664448
aF61.773038783810875
aF61.913069723093194
aF62.053121997522872
aF62.193195555486724
aF62.333290346749742
aF62.473406322458032
aF62.613543435141096
aF62.753701638714716
aF62.893880888483267
aF63.03408114114206
aF63.174302354779833
aF63.314544488880536
aF63.454807504325871
aF63.595091363396641
aF63.73539602977533
aF63.875721468547255
aF64.016067646202742
aF64.156434530638492
aF64.296822091158532
aF64.437230298476692
aF64.577659124717016
aF64.71810854341507
aF64.858578529519292
aF64.999069059391701
aF65.139580110808723
aF65.280111662962284
aF65.420663696460082
aF65.561236193326422
aF65.70182913700242
aF65.84244251234658
aF65.983076305634938
aF66.123730504561109
aF66.26440509823658
aF66.405100077190312
aF66.545815433368844
aF66.686551160135878
aF66.827307252271964
aF66.968083705974053
aF67.108880518854519
aF67.249697689941158
aF67.390535219675797
aF67.531393109913722
aF67.672271363922405
aF67.813169986380657
aF67.954088983377147
aF68.095028362409423
aF68.235988132381863
aF68.376968303605011
aF68.517968887793018
aF68.658989898062572
aF68.800031348930659
aF68.94109325631284
aF69.082175637520933
aF69.223278511260943
aF69.36440189763097
aF69.505545818118506
aF69.646710295598083
aF69.787895354328725
aF69.929101019951077
aF70.070327319484733
aF70.211574281325184
aF70.352841935241102
aF70.494130312370771
aF70.635439445218992
aF70.776769367653799
aF70.918120114903132
aF71.059491723551048
aF71.200884231534161
aF71.342297678137655
aF71.483732103991755
aF71.625187551067526
aF71.766664062672788
aF71.908161683448114
aF72.049680459362051
aF72.191220437707273
aF72.332781667095603
aF72.474364197453809
aF72.61596808001859
aF72.757593367331538
aF72.899240113234896
aF73.040908372865843
aF73.182598202651604
aF73.324309660304181
aF73.466042804815018
aF73.607797696449509
aF73.74957439674148
aF73.891372968487346
aF74.033193475740461
aF74.175035983805401
aF74.316900559231613
aF74.458787269807544
aF74.600696184554522
aF74.742627373720381
aF74.884580908772847
aF75.026556862393363
aF75.168555308470417
aF75.3105763220927
aF75.452619979542291
aF75.594686358287944
aF75.73677553697793
aF75.8788875954329
aF76.021022614638838
aF76.163180676739373
aF76.305361865028786
aF76.447566263944395
aF76.58979395905871
aF76.732045037071984
aF76.874319585804045
aF77.01661769418682
aF77.158939452256021
aF77.30128495114316
aF77.443654283067318
aF77.586047541326522
aF77.728464820289943
aF77.870906215388885
aF78.013371823108287
aF78.155861740978338
aF78.298376067565087
aF78.440914902462012
aF78.583478346280899
aF78.726066500642716
aF78.868679468168494
aF79.011317352469874
aF79.153980258139924
aF79.296668290743654
aF79.439381556808257
aF79.582120163813798
aF79.724884220182972
aF79.867673835271759
aF80.010489119359207
aF80.153330183637337
aF80.296197140201301
aF80.439090102038932
aF80.582009183020475
aF80.724954497888234
aF80.86792616224615
aF81.010924292549021
aF81.153949006092006
aF81.297000420999851
aF81.440078656215945
aF81.583183831491482
aF81.726316067374412
aF81.869475485198222
aF82.012662207070917
aF82.15587635586364
aF82.299118055199244
aF82.442387429441027
aF82.585684603680846
aF82.72900970372784
aF82.872362856096515
aF83.015744187995026
aF83.159153827313304
aF83.3025919026108
aF83.446058543105039
aF83.589553878658876
aF83.733078039768614
aF83.876631157551699
aF84.020213363734044
aF84.163824790637918
aF84.307465571169416
aF84.451135838805612
aF84.594835727581824
aF84.738565372079023
aF84.882324907411046
aF85.026114469211421
aF85.169934193620463
aF85.313784217272257
aF85.457664677281315
aF85.601575711229543
aF85.745517457152857
aF85.889490053527538
aF86.033493639257387
aF86.177528353659326
aF86.321594336450644
aF86.465691727734637
aF86.609820667987236
aF86.753981298043229
aF86.898173759081843
aF87.042398192613405
aF87.186654740464959
aF87.3309435447662
aF87.47526474793537
aF87.61961849266487
aF87.764004921906974
aF87.908424178859761
aF88.052876406952166
aF88.197361749829838
aF88.341880351340194
aF88.486432355518289
aF88.6310179065716
aF88.775637148865599
aF88.920290226908776
aF89.064977285337534
aF89.209698468901706
aF89.354453922449082
aF89.49924379091054
aF89.644068219284989
aF89.788927352623801
aF89.93382133601591
aF90.07875031457236
aF90.223714433410976
aF90.368713837640698
aF90.513748672346367
aF90.658819082573132
aF90.803925213310706
aF90.949067209477818
aF91.094245215906426
aF91.239459377326114
aF91.384709838347959
aF91.529996743449018
aF91.675320236956196
aF91.820680463030342
aF91.966077565650124
aF92.11151168859621
aF92.256982975434767
aF92.402491569501692
aF92.548037613886123
aF92.693621251414356
aF92.839242624633371
aF92.984901875794634
aF93.130599146837596
aF93.276334579373469
aF93.422108314668208
aF93.567920493626701
aF93.7137712567758
aF93.859660744247677
aF94.005589095763398
aF94.151556450616113
aF94.297562947654328
aF94.443608725265193
aF94.589693921357735
aF94.73581867334606
aF94.88198311813214
aF95.028187392089507
aF95.174431631045877
aF95.320715970266392
aF95.467040544436585
aF95.613405487645139
aF95.75981093336722
aF95.906257014447206
aF96.05274386308146
aF96.199271610801404
aF96.345840388456168
aF96.492450326195481
aF96.639101553452534
aF96.785794198926581
aF96.932528390565821
aF97.079304255549971
aF97.226121920273087
aF97.372981510326156
aF97.519883150479814
aF97.666826964667038
aF97.813813075965385
aF97.960841606580104
aF98.107912677826505
aF98.255026410112407
aF98.4021829229209
aF98.549382334792739
aF98.696624763308876
aF98.843910325073168
aF98.991239135694684
aF99.138611309770241
aF99.286026960866948
aF99.43348620150482
aF99.580989143138851
aF99.728535896141935
aF99.876126569787175
aF100.0237612722301
aF100.17144011049162
aF100.31916319044002
aF100.46693061677382
aF100.61474249300393
aF100.76259892143628
aF100.91050000315423
aF101.05844583800106
aF101.20643652456256
aF101.35447216014924
aF101.50255284077912
aF101.65067866116006
aF101.79884971467234
aF101.94706609335124
aF102.09532788786944
aF102.2436351875195
aF102.39198808019684
aF102.54038665238178
aF102.68883098912259
aF102.83732117401782
aF102.98585728919898
aF103.13443941531324
aF103.28306763150611
aF103.43174201540413
aF103.58046264309762
aF103.72922958912326
aF103.87804292644707
aF104.02690272644708
aF104.17580905889629
aF104.32476199194539
aF104.47376159210549
aF104.62280792423149
aF104.7719010515047
aF104.92104103541585
aF105.07022793574833
aF105.21946181056084
aF105.36874271617089
aF105.51807070713775
aF105.6674458362457
aF105.81686815448732
aF105.96633771104639
aF106.11585455328168
aF106.26541872670998
aF106.41503027498968
aF106.56468923990423
aF106.71439566134535
aF106.864149577297
aF107.01395102381879
aF107.16380003502965
aF107.31369664309145
aF107.46364087819306
aF107.61363276853388
aF107.76367234030789
aF107.91375961768762
aF108.06389462280816
aF108.21407737575106
aF108.36430789452879
aF108.51458619506879
aF108.66491229119777
aF108.81528619462594
aF108.96570791493171
aF109.11617745954598
aF109.26669483373676
aF109.41726004059392
aF109.56787308101379
aF109.71853395368383
aF109.86924265506791
aF110.01999917939099
aF110.1708035186243
aF110.32165566247033
aF110.47255559834807
aF110.62350331137851
aF110.7744987843699
aF110.92554199780319
aF111.07663292981771
aF111.22777155619667
aF111.37895785035316
aF111.53019178331597
aF111.68147332371541
aF111.83280243776954
aF111.98417908927
aF112.13560323956884
aF112.2870748475644
aF112.43859386968799
aF112.59016025989058
aF112.74177396962914
aF112.89343494785369
aF113.04514314099436
aF113.19689849294811
aF113.34870094506608
aF113.50055043614064
aF113.65244690239297
aF113.80439027746063
aF113.95638049238485
aF114.10841747559856
aF114.26050115291407
aF114.41263144751132
aF114.56480827992557
aF114.71703156803618
aF114.86930122705461
aF115.02161716951281
aF115.17397930525247
aF115.32638754141324
aF115.47884178242177
aF115.63134192998079
aF115.78388788305863
aF115.9364795378779
aF116.0891167879055
aF116.24179952384218
aF116.39452763361194
aF116.54730100235244
aF116.70011951240475
aF116.85298304330348
aF117.00589147176774
aF117.15884467169096
aF117.31184251413185
aF117.46488486730533
aF117.61797159657328
aF117.77110256443623
aF117.9242776305239
aF118.07749665158705
aF118.23075948148959
aF118.38406597119938
aF118.53741596878106
aF118.69080931938804
aF118.84424586525424
aF118.99772544568738
aF119.15124789706121
aF119.30481305280819
aF119.4584207434129
aF119.61207079640486
aF119.76576303635223
aF119.9194972848553
aF120.07327336053966
aF120.22709107905098
aF120.38095025304841
aF120.53485069219943
aF120.68879220317361
aF120.84277458963808
aF120.99679765225189
aF121.15086118866073
aF121.30496499349307
aF121.45910885835472
aF121.61329257182501
aF121.76751591945235
aF121.92177868375015
aF122.07608064419328
aF122.2304215772144
aF122.38480125620029
aF122.53921945148933
aF122.69367593036775
aF122.84817045706728
aF123.00270279276275
aF123.15727269556898
aF123.31187992053984
aF123.46652421966486
aF123.62120534186873
aF123.77592303300895
aF123.93067703587518
aF124.08546709018755
aF124.2402929325962
aF124.39515429668046
aF124.55005091294824
aF124.70498250883615
aF124.85994880870918
aF125.0149495338611
aF125.16998440251479
aF125.32505312982299
aF125.48015542786901
aF125.63529100566807
aF125.79045956916832
aF125.94566082125257
aF126.10089446174024
aF126.25616018738904
aF126.41145769189725
aF126.56678666590635
aF126.72214679700356
aF126.87753776972482
aF127.03295926555786
aF127.18841096294584
aF127.34389253729047
aF127.49940366095622
aF127.65494400327458
aF127.81051323054766
aF127.96611100605355
aF128.12173699005038
aF128.2773908397819
aF128.43307220948248
aF128.58878075038228
aF128.74451611071387
aF128.90027793571701
aF129.05606586764577
aF129.21187954577451
aF129.36771860640471
aF129.52358268287193
aF129.67947140555253
aF129.83538440187161
aF129.99132129631028
aF130.14728171041372
aF130.30326526279924
aF130.45927156916414
aF130.61530024229518
aF130.77135089207661
aF130.92742312549976
aF131.08351654667183
aF131.2396307568259
aF131.39576535433039
aF131.55191993469913
aF131.70809409060175
aF131.86428741187387
aF132.02049948552806
aF132.17672989576491
aF132.33297822398396
aF132.4892440487952
aF132.64552694603069
aF132.8018264887568
aF132.95814224728596
aF133.1144737891893
aF133.27082067930908
aF133.42718247977174
aF133.58355875000083
aF133.73994904673023
aF133.89635292401815
aF134.05276993326046
aF134.20919962320497
aF134.36564153996551
aF134.52209522703649
aF134.67856022530771
aF134.83503607307918
aF134.99152230607646
aF135.14801845746555
aF135.3045240578692
aF135.46103863538247
aF135.61756171558864
aF135.77409282157583
aF135.93063147395313
aF136.08717719086764
aF136.2437294880217
aF136.40028787868934
aF136.55685187373433
aF136.71342098162731
aF136.86999470846425
aF137.02657255798388
aF137.1831540315863
aF137.33973862835154
aF137.49632584505778
aF137.65291517620085
aF137.80950611401292
aF137.96609814848205
aF138.12269076737172
aF138.27928345624025
aF138.43587569846119
aF138.59246697524293
aF138.74905676564961
aF138.90564454662132
aF139.06222979299466
aF139.21881197752415
aF139.37539057090288
aF139.53196504178408
aF139.68853485680253
aF139.84509948059639
aF140.00165837582875
aF140.15821100320997
aF140.31475682151981
aF140.47129528763
aF140.62782585652633
aF140.78434798133222
aF140.94086111333095
aF141.09736470198925
aF141.25385819498024
aF141.41034103820724
aF141.56681267582709
aF141.72327255027412
aF141.87972010228393
aF142.03615477091779
aF142.19257599358656
aF142.34898320607539
aF142.50537584256816
aF142.66175333567227
aF142.81811511644347
aF142.97446061441087
aF143.13078925760212
aF143.2871004725688
aF143.44339368441172
aF143.59966831680663
aF143.75592379202993
aF143.91215953098435
aF144.06837495322517
aF144.22456947698626
aF144.38074251920611
aF144.53689349555427
aF144.69302182045803
aF144.84912690712903
aF145.00520816758944
aF145.1612650126994
aF145.31729685218332
aF145.47330309465758
aF145.62928314765716
aF145.78523641766304
aF145.94116231012956
aF146.09706022951178
aF146.25292957929304
aF146.40876976201241
aF146.56458017929262
aF146.72036023186791
aF146.87610931961126
aF147.03182684156309
aF147.18751219595887
aF147.34316478025718
aF147.49878399116807
aF147.65436922468109
aF147.80991987609366
aF147.96543534003936
aF148.12091501051643
aF148.27635828091621
aF148.43176454405142
aF148.58713319218501
aF148.74246361705869
aF148.89775520992146
aF149.05300736155857
aF149.20821946231973
aF149.36339090214838
aF149.51852107061035
aF149.67360935692261
aF149.82865514998198
aF149.98365783839449
aF150.13861681050352
aF150.29353145441939
aF150.448401158048
aF150.60322530911981
aF150.75800329521843
aF150.91273450381024
aF151.06741832227294
aF151.2220541379242
aF151.37664133805137
aF151.53117930993955
aF151.68566744090128
aF151.8401051183049
aF151.99449172960374
aF152.14882666236485
aF152.30310930429786
aF152.45733904328395
aF152.61151526740449
aF152.7656373649699
aF152.91970472454844
aF153.0737167349946
aF153.22767278547812
aF153.38157226551246
aF153.53541456498357
aF153.68919907417799
aF153.84292518381153
aF153.99659228505786
aF154.15019976957672
aF154.30374702954225
aF154.45723345767115
aF154.61065844725078
aF154.76402139216771
aF154.9173216869352
aF155.07055872672146
aF155.22373190737767
aF155.37684062546529
aF155.52988427828424
aF155.68286226390049
aF155.83577398117333
aF155.98861882978309
aF156.14139621025839
aF156.2941055240035
aF156.44674617332538
aF156.59931756146096
aF156.75181909260394
aF156.90425017193164
aF157.0566102056317
aF157.2088986009293
aF157.36111476611285
aF157.5132581105608
aF157.66532804476807
aF157.81732398037201
aF157.9692453301785
aF158.12109150818807
aF158.27286192962126
aF158.42455601094494
aF158.57617316989712
aF158.72771282551292
aF158.87917439814953
aF159.03055730951149
aF159.18186098267549
aF159.33308484211543
aF159.48422831372702
aF159.63529082485229
aF159.78627180430408
aF159.93717068238993
aF160.08798689093689
aF160.23871986331471
aF160.38936903446009
aF160.53993384089995
aF160.69041372077507
aF160.84080811386346
aF160.99111646160344
aF161.14133820711623
aF161.29147279522942
aF161.44151967249874
aF161.59147828723127
aF161.7413480895072
aF161.8911285312023
aF162.04081906600939
aF162.19041914946027
aF162.33992823894744
aF162.48934579374509
aF162.63867127503067
aF162.78790414590557
aF162.93704387141602
aF163.08608991857378
aF163.23504175637638
aF163.3838988558276
aF163.53266068995717
aF163.6813267338409
aF163.82989646462028
aF163.97836936152163
aF164.12674490587577
aF164.2750225811368
aF164.4232018729009
aF164.57128226892519
aF164.71926325914598
aF164.86714433569705
aF165.01492499292777
aF165.16260472742081
aF165.31018303800971
aF165.45765942579635
aF165.60503339416826
aF165.75230444881549
aF165.89947209774706
aF166.04653585130828
aF166.19349522219636
aF166.34034972547698
aF166.48709887859991
aF166.63374220141512
aF166.78027921618769
aF166.92670944761369
aF167.07303242283473
aF167.21924767145319
aF167.36535472554655
aF167.51135311968193
aF167.65724239093029
aF167.80302207888042
aF167.94869172565237
aF168.09425087591143
aF168.23969907688118
aF168.38503587835658
aF168.53026083271692
aF168.67537349493836
aF168.82037342260634
aF168.96526017592799
aF169.11003331774378
aF169.25469241353949
aF169.3992370314578
aF169.54366674230928
aF169.68798111958401
aF169.83217973946165
aF169.97626218082317
aF170.12022802526025
aF170.26407685708588
aF170.40780826334455
aF170.55142183382179
aF170.6949171610537
aF170.83829384033621
aF170.98155146973437
aF171.12468965009106
aF171.2677079850358
aF171.41060608099303
aF171.55338354719038
aF171.69603999566664
aF171.83857504127963
aF171.98098830171372
aF172.1232793974871
aF172.265447951959
aF172.40749359133645
aF172.54941594468116
aF172.69121464391588
aF172.83288932383078
aF172.97443962208931
aF173.11586517923413
aF173.25716563869278
aF173.39834064678305
aF173.53938985271805
aF173.68031290861134
aF173.82110946948177
aF173.9617791932578
aF174.10232174078206
aF174.24273677581544
aF174.38302396504096
aF174.52318297806758
aF174.66321348743375
aF174.80311516861065
aF174.94288770000534
aF175.08253076296384
aF175.2220440417733
aF175.36142722366534
aF175.50067999881767
aF175.6398020603566
aF175.77879310435875
aF175.91765282985287
aF176.05638093882118
aF176.19497713620117
aF176.33344112988627
aF176.47177263072689
aF176.60997135253132
aF176.74803701206616
aF176.88596932905682
aF177.02376802618758
aF177.16143282910167
aF177.29896346640106
aF177.43635966964604
aF177.57362117335481
aF177.71074771500258
aF177.84773903502096
aF177.98459487679634
aF178.12131498666906
aF178.25789911393196
aF178.39434701082843
aF178.53065843255095
aF178.66683313723894
aF178.80287088597669
aF178.93877144279102
aF179.07453457464894
aF179.21016005145472
aF179.34564764604733
aF179.48099713419742
aF179.61620829460406
aF179.75128090889166
aF179.88621476160637
aF-179.97899035978767
aF-179.84433466491168
aF-179.70981836047673
aF-179.57544165028725
aF-179.44120473524572
aF-179.30710781335679
aF-179.17315107973192
aF-179.03933472659403
aF-178.90565894328245
aF-178.7721239162575
aF-178.63872982910632
aF-178.50547686254734
aF-178.3723651944363
aF-178.23939499977138
aF-178.10656645069906
aF-177.97387971652
aF-177.84133496369492
aF-177.70893235585058
aF-177.57667205378615
aF-177.44455421547937
aF-177.31257899609344
aF-177.18074654798306
aF-177.0490570207015
aF-176.91751056100745
aF-176.78610731287165
aF-176.65484741748477
aF-176.52373101326367
aF-176.39275823585928
aF-176.26192921816391
aF-176.13124409031897
aF-176.00070297972243
aF-175.87030601103666
aF-175.74005330619639
aF-175.60994498441679
aF-175.47998116220126
aF-175.3501619533501
aF-175.22048746896849
aF-175.09095781747502
aF-174.9615731046103
aF-174.83233343344531
aF-174.7032389043907
aF-174.57428961520486
aF-174.4454856610034
aF-174.31682713426804
aF-174.1883141248554
aF-174.05994672000671
aF-173.93172500435665
aF-173.8036490599429
aF-173.67571896621561
aF-173.5479348000469
aF-173.42029663574047
aF-173.29280454504135
aF-173.16545859714563
aF-173.03825885871032
aF-172.91120539386333
aF-172.7842982642135
aF-172.65753752886059
aF-172.53092324440547
aF-172.40445546496059
aF-172.27813424215981
aF-172.15195962516921
aF-172.02593166069727
aF-171.9000503930055
aF-171.77431586391896
aF-171.64872811283675
aF-171.5232871767432
aF-171.39799309021788
aF-171.27284588544705
aF-171.14784559223406
aF-171.02299223801069
aF-170.89828584784783
aF-170.77372644446652
aF-170.64931404824927
aF-170.52504867725088
aF-170.40093034720985
aF-170.27695907155967
aF-170.15313486143978
aF-170.02945772570709
aF-169.90592767094745
aF-169.78254470148676
aF-169.65930881940284
aF-169.5362200245365
aF-169.41327831450323
aF-169.29048368470481
aF-169.16783612834095
aF-169.04533563642093
aF-168.92298219777493
aF-168.80077579906634
aF-168.6787164248029
aF-168.55680405734878
aF-168.4350386769365
aF-168.31342026167843
aF-168.19194878757872
aF-168.07062422854543
aF-167.94944655640199
aF-167.82841574089963
aF-167.7075317497289
aF-167.58679454853191
aF-167.46620410091415
aF-167.34576036845647
aF-167.22546331072746
aF-167.10531288529492
aF-166.98530904773841
aF-166.86545175166097
aF-166.7457409487015
aF-166.62617658854663
aF-166.50675861894288
aF-166.38748698570885
aF-166.26836163274731
aF-166.14938250205728
aF-166.03054953374632
aF-165.91186266604245
aF-165.7933218353065
aF-165.67492697604416
aF-165.55667802091833
aF-165.43857490076084
aF-165.32061754458519
aF-165.20280587959832
aF-165.0851398312129
aF-164.96761932305958
aF-164.85024427699895
aF-164.73301461313386
aF-164.61593024982156
aF-164.49899110368585
aF-164.38219708962905
aF-164.26554812084456
aF-164.14904410882855
aF-164.03268496339223
aF-163.91647059267422
aF-163.80040090315217
aF-163.68447579965542
aF-163.56869518537641
aF-163.45305896188358
aF-163.33756702913277
aF-163.22221928547944
aF-163.1070156276908
aF-162.99195595095796
aF-162.87704014890747
aF-162.7622681136138
aF-162.64763973561088
aF-162.53315490390474
aF-162.41881350598456
aF-162.30461542783516
aF-162.19056055394859
aF-162.07664876733648
aF-161.96287994954133
aF-161.84925398064868
aF-161.73577073929883
aF-161.62243010269862
aF-161.50923194663298
aF-161.39617614547734
aF-161.2832625722086
aF-161.17049109841713
aF-161.0578615943185
aF-160.94537392876489
aF-160.83302796925716
aF-160.72082358195584
aF-160.608760631693
aF-160.49683898198384
aF-160.38505849503809
aF-160.27341903177143
aF-160.16192045181694
aF-160.05056261353664
aF-159.93934537403277
aF-159.82826858915899
aF-159.71733211353211
aF-159.60653580054282
aF-159.49587950236742
aF-159.38536306997872
aF-159.27498635315735
aF-159.16474920050297
aF-159.05465145944527
aF-158.94469297625491
aF-158.83487359605499
aF-158.7251931628316
aF-158.61565151944512
aF-158.50624850764095
aF-158.39698396806043
aF-158.28785774025189
aF-158.17886966268102
aF-158.07001957274241
aF-157.96130730676941
aF-157.85273270004549
aF-157.74429558681459
aF-157.63599580029188
aF-157.52783317267438
aF-157.41980753515128
aF-157.31191871791472
aF-157.20416655017002
aF-157.09655086014629
aF-156.98907147510693
aF-156.88172822135948
aF-156.77452092426654
aF-156.66744940825529
aF-156.56051349682866
aF-156.45371301257472
aF-156.34704777717712
aF-156.24051761142513
aF-156.13412233522382
aF-156.02786176760367
aF-155.92173572673124
aF-155.81574402991833
aF-155.70988649363235
aF-155.60416293350582
aF-155.49857316434642
aF-155.39311700014676
aF-155.28779425409368
aF-155.18260473857842
aF-155.07754826520585
aF-154.9726246448042
aF-154.86783368743451
aF-154.76317520240013
aF-154.65864899825621
aF-154.55425488281904
aF-154.44999266317527
aF-154.34586214569126
aF-154.2418631360226
aF-154.13799543912282
aF-154.03425885925284
aF-153.93065319999019
aF-153.82717826423769
aF-153.72383385423279
aF-153.62061977155656
aF-153.51753581714217
aF-153.41458179128426
aF-153.31175749364763
aF-153.20906272327582
aF-153.10649727860013
aF-153.00406095744805
aF-152.90175355705202
aF-152.79957487405824
aF-152.69752470453471
aF-152.59560284398015
aF-152.49380908733241
aF-152.39214322897641
aF-152.29060506275349
aF-152.18919438196849
aF-152.08791097939897
aF-151.98675464730303
aF-151.8857251774273
aF-151.78482236101573
aF-151.68404598881688
aF-151.58339585109235
aF-151.48287173762475
aF-151.38247343772557
aF-151.28220074024313
aF-151.18205343357039
aF-151.08203130565263
aF-150.98213414399524
aF-150.88236173567159
aF-150.78271386733056
aF-150.68319032520409
aF-150.58379089511484
aF-150.48451536248353
aF-150.38536351233662
aF-150.2863351293137
aF-150.18742999767466
aF-150.08864790130718
aF-149.98998862373392
aF-149.89145194811994
aF-149.79303765727954
aF-149.69474553368389
aF-149.59657535946747
aF-149.49852691643576
aF-149.40059998607182
aF-149.30279434954343
aF-149.20510978770992
aF-149.10754608112907
aF-149.01010301006383
aF-148.91278035448929
aF-148.81557789409905
aF-148.71849540831249
aF-148.62153267628071
aF-148.52468947689354
aF-148.42796558878607
aF-148.33136079034495
aF-148.23487485971495
aF-148.13850757480546
aF-148.04225871329666
aF-147.94612805264606
aF-147.85011537009439
aF-147.75422044267236
aF-147.65844304720636
aF-147.56278296032494
aF-147.46723995846463
aF-147.37181381787622
aF-147.27650431463056
aF-147.18131122462472
aF-147.08623432358792
aF-146.99127338708698
aF-146.89642819053273
aF-146.8016985091856
aF-146.70708411816096
aF-146.6125847924354
aF-146.51820030685218
aF-146.42393043612674
aF-146.32977495485241
aF-146.23573363750572
aF-146.14180625845219
aF-146.04799259195164
aF-145.95429241216337
aF-145.8607054931521
aF-145.76723160889267
aF-145.67387053327556
aF-145.58062204011225
aF-145.4874859031402
aF-145.39446189602822
aF-145.30154979238145
aF-145.20874936574629
aF-145.1160603896158
aF-145.02348263743434
aF-144.93101588260271
aF-144.83865989848306
aF-144.74641445840359
aF-144.65427933566369
aF-144.5622543035384
aF-144.47033913528313
aF-144.37853360413879
aF-144.28683748333634
aF-144.19525054610091
aF-144.10377256565704
aF-144.01240331523266
aF-143.92114256806445
aF-143.82999009740121
aF-143.7389456765093
aF-143.64800907867624
aF-143.55718007721569
aF-143.4664584454714
aF-143.37584395682174
aF-143.2853363846836
aF-143.19493550251721
aF-143.10464108382942
aF-143.01445290217865
aF-142.92437073117878
aF-142.8343943445029
aF-142.74452351588766
aF-142.65475801913709
aF-142.56509762812664
aF-142.47554211680728
aF-142.38609125920871
aF-142.29674482944424
aF-142.20750260171351
aF-142.11836435030725
aF-142.02932984961029
aF-141.94039887410543
aF-141.85157119837771
aF-141.76284659711695
aF-141.67422484512227
aF-141.58570571730539
aF-141.49728898869398
aF-141.40897443443541
aF-141.32076182979984
aF-141.23265095018417
aF-141.14464157111522
aF-141.0567334682527
aF-140.96892641739328
aF-140.88122019447323
aF-140.79361457557212
aF-140.70610933691572
aF-140.61870425487956
aF-140.53139910599182
aF-140.4441936669364
aF-140.35708771455646
aF-140.27008102585694
aF-140.18317337800809
aF-140.09636454834808
aF-140.00965431438627
aF-139.92304245380595
aF-139.83652874446739
aF-139.75011296441076
aF-139.66379489185883
aF-139.57757430521971
aF-139.49145098309017
aF-139.40542470425771
aF-139.3194952477038
aF-139.23366239260636
aF-139.14792591834242
aF-139.06228560449091
aF-138.97674123083519
aF-138.89129257736565
aF-138.80593942428212
aF-138.72068155199668
aF-138.63551874113597
aF-138.55045077254383
aF-138.46547742728333
aF-138.38059848663985
aF-138.2958137321227
aF-138.2111229454683
aF-138.12652590864181
aF-138.04202240383978
aF-137.95761221349238
aF-137.87329512026568
aF-137.78907090706369
aF-137.70493935703104
aF-137.62090025355434
aF-137.5369533802652
aF-137.45309852104157
aF-137.36933546001063
aF-137.28566398155019
aF-137.20208387029086
aF-137.11859491111855
aF-137.03519688917564
aF-136.9518895898637
aF-136.86867279884513
aF-136.78554630204479
aF-136.70250988565257
aF-136.61956333612443
aF-136.53670644018496
aF-136.45393898482885
aF-136.37126075732252
aF-136.28867154520651
aF-136.20617113629621
aF-136.12375931868479
aF-136.04143588074402
aF-135.95920061112599
aF-135.87705329876542
aF-135.7949937328805
aF-135.71302170297491
aF-135.63113699883959
aF-135.54933941055359
aF-135.46762872848646
aF-135.38600474329903
aF-135.30446724594555
aF-135.22301602767456
aF-135.14165088003077
aF-135.06037159485621
aF-134.97917796429189
aF-134.89806978077888
aF-134.81704683706013
aF-134.73610892618109
aF-134.65525584149179
aF-134.57448737664774
aF-134.49380332561108
aF-134.41320348265225
aF-134.33268764235089
aF-134.25225559959713
aF-134.17190714959284
aF-134.09164208785293
aF-134.0114602102062
aF-133.93136131279664
aF-133.85134519208466
aF-133.77141164484786
aF-133.6915604681825
aF-133.61179145950436
aF-133.53210441654966
aF-133.45249913737632
aF-133.37297542036481
aF-133.29353306421922
aF-133.21417186796808
aF-133.13489163096548
aF-133.05569215289185
aF-132.97657323375509
aF-132.89753467389113
aF-132.81857627396494
aF-132.73969783497171
aF-132.66089915823716
aF-132.5821800454186
aF-132.50354029850584
aF-132.42497971982189
aF-132.34649811202354
aF-132.26809527810244
aF-132.1897710213855
aF-132.11152514553595
aF-132.03335745455394
aF-131.95526775277685
aF-131.87725584488049
aF-131.79932153587947
aF-131.7214646311279
aF-131.64368493632
aF-131.56598225749062
aF-131.48835640101603
aF-131.41080717361427
aF-131.33333438234587
aF-131.2559378346144
aF-131.17861733816673
aF-131.10137270109394
aF-131.02420373183139
aF-130.94711023915966
aF-130.87009203220467
aF-130.79314892043826
aF-130.71628071367851
aF-130.63948722209031
aF-130.56276825618585
aF-130.48612362682476
aF-130.40955314521452
aF-130.33305662291116
aF-130.25663387181908
aF-130.18028470419188
aF-130.10400893263247
aF-130.02780637009326
aF-129.95167682987667
aF-129.87562012563532
aF-129.79963607137222
aF-129.72372448144137
aF-129.64788517054745
aF-129.57211795374664
aF-129.49642264644606
aF-129.42079906440509
aF-129.34524702373463
aF-129.26976634089732
aF-129.19435683270862
aF-129.11901831633571
aF-129.04375060929851
aF-128.9685535294696
aF-128.89342689507416
aF-128.81837052469027
aF-128.7433842372489
aF-128.66846785203398
aF-128.59362118868282
aF-128.51884406718537
aF-128.44413630788523
aF-128.36949773147893
aF-128.29492815901656
aF-128.22042741190108
aF-128.14599531188912
aF-128.07163168109034
aF-127.99733634196778
aF-127.92310911733749
aF-127.84894983036911
aF-127.77485830458507
aF-127.70083436386099
aF-127.62687783242551
aF-127.55298853486028
aF-127.47916629609944
aF-127.40541094143042
aF-127.33172229649286
aF-127.25810018727893
aF-127.18454444013346
aF-127.11105488175328
aF-127.03763133918723
aF-126.96427363983636
aF-126.89098161145317
aF-126.81775508214206
aF-126.74459388035855
aF-126.6714978349095
aF-126.59846677495273
aF-126.52550052999676
aF-126.45259892990067
aF-126.37976180487415
aF-126.30698898547635
aF-126.23428030261709
aF-126.16163558755483
aF-126.08905467189803
aF-126.01653738760386
aF-125.94408356697832
aF-125.87169304267574
aF-125.79936564769883
aF-125.72710121539778
aF-125.65489957947069
aF-125.58276057396256
aF-125.51068403326542
aF-125.43866979211764
aF-125.36671768560386
aF-125.29482754915475
aF-125.22299921854591
aF-125.15123252989859
aF-125.07952731967821
aF-125.00788342469487
aF-124.93630068210258
aF-124.86477892939854
aF-124.7933180044234
aF-124.72191774536034
aF-124.65057799073477
aF-124.57929857941414
aF-124.50807935060702
aF-124.43692014386319
aF-124.36582079907275
aF-124.29478115646596
aF-124.22380105661266
aF-124.15288034042176
aF-124.08201884914094
aF-124.01121642435568
aF-123.94047290798967
aF-123.86978814230339
aF-123.79916196989406
aF-123.72859423369518
aF-123.65808477697574
aF-123.5876334433401
aF-123.51724007672694
aF-123.44690452140919
aF-123.37662662199335
aF-123.3064062234188
aF-123.23624317095731
aF-123.16613731021286
aF-123.09608848712038
aF-123.0260965479459
aF-122.95616133928533
aF-122.88628270806441
aF-122.81646050153792
aF-122.74669456728901
aF-122.67698475322872
aF-122.60733090759523
aF-122.53773287895375
aF-122.46819051619516
aF-122.39870366853586
aF-122.32927218551731
aF-122.25989591700488
aF-122.19057471318764
aF-122.12130842457765
aF-122.05209690200925
aF-121.98293999663851
aF-121.91383755994231
aF-121.84478944371816
aF-121.77579550008319
aF-121.70685558147348
aF-121.63796954064384
aF-121.56913723066643
aF-121.50035850493066
aF-121.43163321714241
aF-121.36296122132312
aF-121.29434237180934
aF-121.22577652325194
aF-121.15726353061534
aF-121.08880324917727
aF-121.02039553452721
aF-120.95204024256658
aF-120.88373722950746
aF-120.81548635187205
aF-120.74728746649224
aF-120.67914043050827
aF-120.61104510136859
aF-120.54300133682882
aF-120.47500899495124
aF-120.40706793410376
aF-120.33917801295939
aF-120.27133909049564
aF-120.20355102599341
aF-120.13581367903654
aF-120.06812690951104
aF-120.0004905776041
aF-119.93290454380374
aF-119.86536866889746
aF-119.79788281397228
aF-119.73044684041332
aF-119.66306060990316
aF-119.59572398442134
aF-119.52843682624324
aF-119.46119899793983
aF-119.39401036237618
aF-119.32687078271107
aF-119.25978012239655
aF-119.19273824517644
aF-119.12574501508607
aF-119.05880029645117
aF-118.9919039538875
aF-118.92505585229952
aF-118.85825585688001
aF-118.79150383310905
aF-118.72479964675343
aF-118.65814316386553
aF-118.59153425078287
aF-118.52497277412695
aF-118.45845860080281
aF-118.391991597998
aF-118.32557163318165
aF-118.25919857410405
aF-118.19287228879534
aF-118.12659264556508
aF-118.06035951300139
aF-117.99417275996984
aF-117.92803225561291
aF-117.86193786934911
aF-117.79588947087196
aF-117.72988693014962
aF-117.66393011742335
aF-117.59801890320755
aF-117.532153158288
aF-117.46633275372183
aF-117.40055756083618
aF-117.33482745122764
aF-117.26914229676107
aF-117.20350196956927
aF-117.13790634205169
aF-117.07235528687379
aF-117.00684867696616
aF-116.94138638552366
aF-116.87596828600455
aF-116.81059425212977
aF-116.74526415788195
aF-116.67997787750453
aF-116.6147352855012
aF-116.54953625663452
aF-116.48438066592577
aF-116.41926838865336
aF-116.35419930035251
aF-116.28917327681427
aF-116.22419019408431
aF-116.15924992846273
aF-116.09435235650263
aF-116.02949735500937
aF-115.96468480104006
aF-115.89991457190207
aF-115.83518654515295
aF-115.77050059859877
aF-115.70585661029381
aF-115.64125445853963
aF-115.57669402188382
aF-115.51217517911971
aF-115.44769780928506
aF-115.38326179166133
aF-115.31886700577292
aF-115.25451333138622
aF-115.19020064850868
aF-115.12592883738807
aF-115.06169777851152
aF-114.9975073526047
aF-114.93335744063081
aF-114.86924792379018
aF-114.8051786835188
aF-114.74114960148771
aF-114.67716055960226
aF-114.61321144000111
aF-114.54930212505518
aF-114.48543249736746
aF-114.42160243977108
aF-114.35781183532943
aF-114.29406056733471
aF-114.23034851930728
aF-114.16667557499485
aF-114.10304161837132
aF-114.03944653363639
aF-113.97589020521413
aF-113.91237251775244
aF-113.8488933561224
aF-113.78545260541681
aF-113.72205015094987
aF-113.65868587825604
aF-113.59535967308921
aF-113.53207142142199
aF-113.46882100944443
aF-113.40560832356384
aF-113.3424332504032
aF-113.27929567680073
aF-113.21619548980904
aF-113.15313257669388
aF-113.09010682493393
aF-113.02711812221921
aF-112.96416635645062
aF-112.90125141573934
aF-112.83837318840521
aF-112.77553156297662
aF-112.71272642818926
aF-112.64995767298528
aF-112.58722518651258
aF-112.52452885812384
aF-112.46186857737575
aF-112.39924423402809
aF-112.33665571804269
aF-112.27410291958321
aF-112.21158572901341
aF-112.14910403689697
aF-112.08665773399639
aF-112.024246711272
aF-111.96187085988154
aF-111.89953007117882
aF-111.83722423671324
aF-111.7749532482286
aF-111.71271699766258
aF-111.65051537714579
aF-111.58834827900083
aF-111.52621559574155
aF-111.4641172200721
aF-111.40205304488627
aF-111.34002296326655
aF-111.27802686848317
aF-111.21606465399339
aF-111.15413621344069
aF-111.09224144065391
aF-111.03038022964645
aF-110.96855247461514
aF-110.90675806993997
aF-110.84499691018269
aF-110.7832688900863
aF-110.7215739045743
aF-110.65991184874949
aF-110.59828261789353
aF-110.53668610746578
aF-110.47512221310284
aF-110.41359083061747
aF-110.35209185599768
aF-110.29062518540637
aF-110.22919071517981
aF-110.16778834182763
aF-110.10641796203136
aF-110.04507947264378
aF-109.98377277068842
aF-109.92249775335826
aF-109.8612543180153
aF-109.80004236218957
aF-109.73886178357827
aF-109.67771248004537
aF-109.61659434962004
aF-109.55550729049675
aF-109.49445120103374
aF-109.43342597975246
aF-109.37243152533711
aF-109.31146773663319
aF-109.25053451264731
aF-109.18963175254602
aF-109.12875935565521
aF-109.06791722145923
aF-109.00710524959997
aF-108.94632333987651
aF-108.88557139224395
aF-108.82484930681245
aF-108.76415698384714
aF-108.70349432376662
aF-108.64286122714257
aF-108.582257594699
aF-108.52168332731118
aF-108.46113832600506
aF-108.40062249195658
aF-108.34013572649064
aF-108.2796779310808
aF-108.2192490073478
aF-108.15884885705943
aF-108.0984773821295
aF-108.03813448461706
aF-107.97782006672577
aF-107.91753403080288
aF-107.85727627933893
aF-107.79704671496648
aF-107.73684524045964
aF-107.67667175873329
aF-107.61652617284244
aF-107.55640838598107
aF-107.49631830148194
aF-107.43625582281538
aF-107.37622085358886
aF-107.3162132975461
aF-107.25623305856631
aF-107.19628004066351
aF-107.13635414798587
aF-107.07645528481478
aF-107.01658335556432
aF-106.95673826478044
aF-106.8969199171402
aF-106.83712821745107
aF-106.77736307065022
aF-106.71762438180384
aF-106.65791205610634
aF-106.59822599887968
aF-106.53856611557266
aF-106.47893231176016
aF-106.41932449314241
aF-106.35974256554445
aF-106.3001864349152
aF-106.24065600732688
aF-106.1811511889743
aF-106.12167188617407
aF-106.06221800536409
aF-106.00278945310257
aF-105.94338613606766
aF-105.88400796105643
aF-105.82465483498447
aF-105.76532666488492
aF-105.70602335790817
aF-105.64674482132064
aF-105.5874909625046
aF-105.52826168895716
aF-105.46905690828976
aF-105.40987652822756
aF-105.35072045660834
aF-105.29158860138249
aF-105.23248087061168
aF-105.17339717246861
aF-105.11433741523635
aF-105.05530150730722
aF-104.99628935718289
aF-104.93730087347285
aF-104.87833596489452
aF-104.81939454027207
aF-104.76047650853602
aF-104.70158177872251
aF-104.64271025997266
aF-104.58386186153187
aF-104.52503649274938
aF-104.46623406307717
aF-104.40745448207005
aF-104.34869765938411
aF-104.28996350477689
aF-104.23125192810642
aF-104.17256283933028
aF-104.11389614850566
aF-104.05525176578794
aF-103.99662960143081
aF-103.93802956578511
aF-103.87945156929838
aF-103.82089552251441
aF-103.76236133607217
aF-103.70384892070581
aF-103.64535818724357
aF-103.58688904660723
aF-103.52844140981178
aF-103.47001518796441
aF-103.41161029226433
aF-103.35322663400176
aF-103.29486412455762
aF-103.23652267540277
aF-103.17820219809755
aF-103.11990260429097
aF-103.0616238057204
aF-103.00336571421069
aF-102.94512824167381
aF-102.88691130010817
aF-102.82871480159794
aF-102.77053865831274
aF-102.71238278250668
aF-102.65424708651808
aF-102.5961314827688
aF-102.53803588376368
aF-102.47996020208993
aF-102.42190435041655
aF-102.36386824149386
aF-102.30585178815276
aF-102.24785490330434
aF-102.1898774999393
aF-102.13191949112726
aF-102.07398079001628
aF-102.01606130983241
aF-101.95816096387884
aF-101.90027966553579
aF-101.84241732825949
aF-101.78457386558202
aF-101.7267491911105
aF-101.66894321852669
aF-101.61115586158641
aF-101.55338703411901
aF-101.4956366500268
aF-101.43790462328445
aF-101.38019086793877
aF-101.32249529810784
aF-101.26481782798047
aF-101.20715837181601
aF-101.14951684394345
aF-101.09189315876114
aF-101.03428723073631
aF-100.97669897440417
aF-100.91912830436796
aF-100.86157513529781
aF-100.80403938193092
aF-100.74652095907041
aF-100.68901978158519
aF-100.63153576440936
aF-100.57406882254161
aF-100.51661887104495
aF-100.45918582504606
aF-100.40176959973458
aF-100.34437011036314
aF-100.28698727224628
aF-100.2296210007605
aF-100.17227121134333
aF-100.11493781949305
aF-100.05762074076824
aF-100.00031989078718
aF-99.943035185227401
aF-99.885766539825383
aF-99.828513870375645
aF-99.77127709273087
aF-99.71405612280077
aF-99.65685087655217
aF-99.599661270008397
aF-99.542487219248471
aF-99.485328640407047
aF-99.428185449673791
aF-99.371057563292979
aF-99.313944897562919
aF-99.256847368835579
aF-99.199764893516175
aF-99.142697388062558
aF-99.085644768984949
aF-99.028606952845408
aF-98.971583856257269
aF-98.914575395884924
aF-98.857581488443174
aF-98.800602050696867
aF-98.743636999460605
aF-98.686686251597919
aF-98.629749724021266
aF-98.572827333691322
aF-98.515918997616581
aF-98.459024632853115
aF-98.40214415650378
aF-98.345277485718199
aF-98.288424537692038
aF-98.231585229666678
aF-98.174759478928834
aF-98.117947202810086
aF-98.061148318686463
aF-98.004362743978035
aF-97.947590396148485
aF-97.890831192704752
aF-97.834085051196553
aF-97.777351889215879
aF-97.720631624396901
aF-97.663924174415172
aF-97.607229456987525
aF-97.550547389871539
aF-97.493877890865136
aF-97.437220877806112
aF-97.380576268572
aF-97.32394398107941
aF-97.267323933283649
aF-97.210716043178536
aF-97.154120228795691
aF-97.09753640820459
aF-97.040964499511674
aF-96.984404420860358
aF-96.92785609043041
aF-96.871319426437566
aF-96.814794347133457
aF-96.758280770804845
aF-96.701778615773407
aF-96.645287800395408
aF-96.588808243061237
aF-96.532339862195045
aF-96.475882576254435
aF-96.419436303730023
aF-96.36300096314514
aF-96.306576473055301
aF-96.250162752048126
aF-96.19375971874274
aF-96.137367291789289
aF-96.080985389869198
aF-96.024613931693949
aF-95.968252836005277
aF-95.911902021574974
aF-95.855561407203695
aF-95.799230911721764
aF-95.742910453987676
aF-95.686599952888685
aF-95.630299327339884
aF-95.574008496283994
aF-95.517727378691148
aF-95.461455893558337
aF-95.405193959909298
aF-95.348941496793955
aF-95.292698423288172
aF-95.236464658493489
aF-95.18024012153667
aF-95.124024731569293
aF-95.067818407767859
aF-95.011621069332591
aF-94.955432635488236
aF-94.899253025482537
aF-94.843082158586995
aF-94.786919954095737
aF-94.730766331325668
aF-94.674621209615836
aF-94.618484508327228
aF-94.562356146842632
aF-94.506236044565966
aF-94.450124120922212
aF-94.394020295356981
aF-94.337924487336224
aF-94.281836616345984
aF-94.225756601891902
aF-94.169684363499101
aF-94.113619820711719
aF-94.057562893092751
aF-94.001513500223524
aF-93.94547156170367
aF-93.88943699715044
aF-93.833409726198866
aF-93.777389668500902
aF-93.721376743725699
aF-93.665370871558878
aF-93.609371971702359
aF-93.553379963874093
aF-93.497394767807734
aF-93.441416303252311
aF-93.385444489971974
aF-93.329479247745681
aF-93.273520496366928
aF-93.217568155643349
aF-93.161622145396493
aF-93.105682385461648
aF-93.04974879568725
aF-92.993821295934964
aF-92.937899806079031
aF-92.881984246006184
aF-92.82607453561549
aF-92.770170594817642
aF-92.714272343535114
aF-92.65837970170152
aF-92.602492589261701
aF-92.546610926171084
aF-92.490734632395586
aF-92.434863627911298
aF-92.378997832704172
aF-92.32313716676984
aF-92.267281550113211
aF-92.211430902748234
aF-92.155585144697667
aF-92.099744195992741
aF-92.043907976672912
aF-91.988076406785638
aF-91.932249406385893
aF-91.876426895536326
aF-91.820608794306338
aF-91.764795022772532
aF-91.708985501017892
aF-91.653180149131771
aF-91.597378887209643
aF-91.541581635352472
aF-91.485788313667157
aF-91.429998842265533
aF-91.374213141264477
aF-91.318431130785612
aF-91.262652730954997
aF-91.206877861902825
aF-91.151106443763268
aF-91.095338396674123
aF-91.039573640776567
aF-90.983812096214933
aF-90.928053683136355
aF-90.87229832169082
aF-90.816545932030266
aF-90.760796434309157
aF-90.705049748683379
aF-90.649305795310752
aF-90.593564494350233
aF-90.537825765961855
aF-90.482089530306538
aF-90.426355707545696
aF-90.370624217841055
aF-90.314894981354442
aF-90.259167918247414
aF-90.203442948681143
aF-90.147719992816022
aF-90.091998970811503
aF-90.036279802826016
aF-89.980562409016144
aF-89.924846709537235
aF-89.869132624542303
aF-89.813420074182304
aF-89.757708978605891
aF-89.701999257958704
aF-89.646290832383741
aF-89.590583622020631
aF-89.534877547005649
aF-89.479172527471377
aF-89.423468483546458
aF-89.367765335355401
aF-89.312063003018253
aF-89.256361406650441
aF-89.200660466362564
aF-89.144960102259972
aF-89.089260234442648
aF-89.033560783005058
aF-88.977861668035658
aF-88.922162809617006
aF-88.866464127825054
aF-88.810765542729456
aF-88.755066974392747
aF-88.699368342870727
aF-88.643669568211649
aF-88.587970570456349
aF-88.53227126963786
aF-88.476571585781159
aF-88.420871438903106
aF-88.365170749012037
aF-88.309469436107477
aF-88.253767420180054
aF-88.198064621211259
aF-88.142360959173104
aF-88.086656354027951
aF-88.030950725728275
aF-87.975243994216456
aF-87.919536079424461
aF-87.863826901273697
aF-87.8081163796748
aF-87.752404434527165
aF-87.696690985719229
aF-87.640975953127494
aF-87.585259256617064
aF-87.52954081604085
aF-87.473820551239697
aF-87.418098382041819
aF-87.362374228262937
aF-87.306648009705725
aF-87.250919646159844
aF-87.195189057401478
aF-87.139456163193302
aF-87.083720883284101
aF-87.027983137408611
aF-86.972242845287468
aF-86.916499926626415
aF-86.860754301116913
aF-86.805005888435048
aF-86.749254608241898
aF-86.693500380183309
aF-86.637743123889024
aF-86.581982758973425
aF-86.52621920503428
aF-86.470452381653473
aF-86.414682208396087
aF-86.35890860481048
aF-86.303131490428029
aF-86.24735078476283
aF-86.191566407311555
aF-86.135778277553186
aF-86.079986314948783
aF-86.024190438941318
aF-85.968390568955328
aF-85.912586624396781
aF-85.856778524653009
aF-85.800966189091994
aF-85.745149537062801
aF-85.689328487894741
aF-85.633502960897601
aF-85.577672875361174
aF-85.52183815055507
aF-85.465998705728637
aF-85.410154460110476
aF-85.354305332908524
aF-85.298451243309572
aF-85.24259211047918
aF-85.18672785356145
aF-85.130858391678714
aF-85.074983643931418
aF-85.019103529397952
aF-84.963217967134156
aF-84.907326876173357
aF-84.851430175526076
aF-84.795527784179782
aF-84.739619621098754
aF-84.683705605223665
aF-84.627785655471669
aF-84.571859690735735
aF-84.515927629884985
aF-84.459989391764012
aF-84.404044895192882
aF-84.348094058966822
aF-84.292136801856103
aF-84.236173042605728
aF-84.180202699935222
aF-84.124225692538474
aF-84.068241939083464
aF-84.012251358212026
aF-83.956253868539662
aF-83.900249388655467
aF-83.844237837121526
aF-83.788219132473174
aF-83.732193193218308
aF-83.67615993783761
aF-83.620119284784053
aF-83.564071152482612
aF-83.508015459330494
aF-83.451952123696202
aF-83.395881063920157
aF-83.339802198313748
aF-83.283715445159572
aF-83.227620722710981
aF-83.171517949192022
aF-83.115407042797102
aF-83.059287921690839
aF-83.003160504007823
aF-82.947024707852421
aF-82.890880451298514
aF-82.834727652389276
aF-82.778566229137283
aF-82.722396099523451
aF-82.666217181498055
aF-82.6100293929792
aF-82.553832651853739
aF-82.497626875976351
aF-82.441411983169559
aF-82.385187891223552
aF-82.328954517895809
aF-82.272711780911166
aF-82.216459597961332
aF-82.160197886704822
aF-82.103926564766638
aF-82.047645549738249
aF-81.991354759177085
aF-81.935054110606771
aF-81.87874352151627
aF-81.822422909360313
aF-81.766092191558826
aF-81.709751285496736
aF-81.65340010852411
aF-81.597038577955288
aF-81.540666611069383
aF-81.484284125109482
aF-81.427891037282919
aF-81.371487264760688
aF-81.31507272467752
aF-81.258647334131439
aF-81.202211010183689
aF-81.145763669858553
aF-81.089305230143054
aF-81.032835607986769
aF-80.9763547203017
aF-80.919862483961907
aF-80.863358815803551
aF-80.806843632624421
aF-80.750316851183911
aF-80.69377838820273
aF-80.637228160362639
aF-80.580666084306515
aF-80.524092076637842
aF-80.467506053920602
aF-80.410907932679208
aF-80.354297629398019
aF-80.29767506052147
aF-80.241040142453741
aF-80.184392791558253
aF-80.12773292415811
aF-80.071060456535264
aF-80.014375304930653
aF-79.95767738554396
aF-79.900966614533331
aF-79.844242908015303
aF-79.787506182064448
aF-79.730756352713243
aF-79.673993335952048
aF-79.617217047728545
aF-79.560427403947912
aF-79.503624320472326
aF-79.446807713121004
aF-79.389977497669918
aF-79.333133589851471
aF-79.276275905354552
aF-79.219404359824154
aF-79.162518868861255
aF-79.1056193480226
aF-79.048705712820578
aF-78.991777878722885
aF-78.934835761152513
aF-78.87787927548743
aF-78.820908337060516
aF-78.763922861159131
aF-78.706922763025233
aF-78.649907957854992
aF-78.592878360798636
aF-78.535833886960518
aF-78.478774451398209
aF-78.421699969123438
aF-78.36461035510068
aF-78.307505524248029
aF-78.250385391436339
aF-78.193249871489286
aF-78.136098879183166
aF-78.078932329246754
aF-78.021750136361064
aF-77.964552215159188
aF-77.90733848022613
atp5
.